ARM GAS  C:\Users\Shaunak\AppData\Local\Temp\ccyISjfe.s 			page 1


   1              		.syntax unified
   2              		.cpu cortex-m3
   3              		.fpu softvfp
   4              		.eabi_attribute 20, 1
   5              		.eabi_attribute 21, 1
   6              		.eabi_attribute 23, 3
   7              		.eabi_attribute 24, 1
   8              		.eabi_attribute 25, 1
   9              		.eabi_attribute 26, 1
  10              		.eabi_attribute 30, 1
  11              		.eabi_attribute 34, 1
  12              		.eabi_attribute 18, 4
  13              		.thumb
  14              		.syntax unified
  15              		.file	"EEPROM.c"
  16              		.text
  17              	.Ltext0:
  18              		.cfi_sections	.debug_frame
  19              		.section	.text.EEPROM_Enable,"ax",%progbits
  20              		.align	2
  21              		.global	EEPROM_Enable
  22              		.thumb
  23              		.thumb_func
  24              		.type	EEPROM_Enable, %function
  25              	EEPROM_Enable:
  26              	.LFB0:
  27              		.file 1 "Generated_Source\\PSoC5\\EEPROM.c"
   1:Generated_Source\PSoC5/EEPROM.c **** /*******************************************************************************
   2:Generated_Source\PSoC5/EEPROM.c **** * File Name: EEPROM.c
   3:Generated_Source\PSoC5/EEPROM.c **** * Version 3.0
   4:Generated_Source\PSoC5/EEPROM.c **** *
   5:Generated_Source\PSoC5/EEPROM.c **** *  Description:
   6:Generated_Source\PSoC5/EEPROM.c **** *   Provides the source code to the API for the EEPROM component.
   7:Generated_Source\PSoC5/EEPROM.c **** *
   8:Generated_Source\PSoC5/EEPROM.c **** ********************************************************************************
   9:Generated_Source\PSoC5/EEPROM.c **** * Copyright 2008-2015, Cypress Semiconductor Corporation.  All rights reserved.
  10:Generated_Source\PSoC5/EEPROM.c **** * You may use this file only in accordance with the license, terms, conditions,
  11:Generated_Source\PSoC5/EEPROM.c **** * disclaimers, and limitations in the end user license agreement accompanying
  12:Generated_Source\PSoC5/EEPROM.c **** * the software package with which this file was provided.
  13:Generated_Source\PSoC5/EEPROM.c **** *******************************************************************************/
  14:Generated_Source\PSoC5/EEPROM.c **** 
  15:Generated_Source\PSoC5/EEPROM.c **** #include "EEPROM.h"
  16:Generated_Source\PSoC5/EEPROM.c **** 
  17:Generated_Source\PSoC5/EEPROM.c **** 
  18:Generated_Source\PSoC5/EEPROM.c **** /*******************************************************************************
  19:Generated_Source\PSoC5/EEPROM.c **** * Function Name: EEPROM_Enable
  20:Generated_Source\PSoC5/EEPROM.c **** ********************************************************************************
  21:Generated_Source\PSoC5/EEPROM.c **** *
  22:Generated_Source\PSoC5/EEPROM.c **** * Summary:
  23:Generated_Source\PSoC5/EEPROM.c **** *  Enable the EEPROM block. Also reads the temperature and stores it for
  24:Generated_Source\PSoC5/EEPROM.c **** *  future writes.
  25:Generated_Source\PSoC5/EEPROM.c **** *
  26:Generated_Source\PSoC5/EEPROM.c **** * Parameters:
  27:Generated_Source\PSoC5/EEPROM.c **** *  None
  28:Generated_Source\PSoC5/EEPROM.c **** *
  29:Generated_Source\PSoC5/EEPROM.c **** * Return:
  30:Generated_Source\PSoC5/EEPROM.c **** *  None
ARM GAS  C:\Users\Shaunak\AppData\Local\Temp\ccyISjfe.s 			page 2


  31:Generated_Source\PSoC5/EEPROM.c **** *
  32:Generated_Source\PSoC5/EEPROM.c **** *******************************************************************************/
  33:Generated_Source\PSoC5/EEPROM.c **** void EEPROM_Enable(void) 
  34:Generated_Source\PSoC5/EEPROM.c **** {
  28              		.loc 1 34 0
  29              		.cfi_startproc
  30              		@ args = 0, pretend = 0, frame = 0
  31              		@ frame_needed = 0, uses_anonymous_args = 0
  32 0000 08B5     		push	{r3, lr}
  33              		.cfi_def_cfa_offset 8
  34              		.cfi_offset 3, -8
  35              		.cfi_offset 14, -4
  35:Generated_Source\PSoC5/EEPROM.c ****     /* Read temperature value */
  36:Generated_Source\PSoC5/EEPROM.c ****     (void)CySetTemp();
  36              		.loc 1 36 0
  37 0002 FFF7FEFF 		bl	CySetTemp
  38              	.LVL0:
  37:Generated_Source\PSoC5/EEPROM.c **** 
  38:Generated_Source\PSoC5/EEPROM.c ****     /* Start EEPROM block */
  39:Generated_Source\PSoC5/EEPROM.c ****     CyEEPROM_Start();
  39              		.loc 1 39 0
  40 0006 FFF7FEFF 		bl	CyEEPROM_Start
  41              	.LVL1:
  42 000a 08BD     		pop	{r3, pc}
  43              		.cfi_endproc
  44              	.LFE0:
  45              		.size	EEPROM_Enable, .-EEPROM_Enable
  46              		.section	.text.EEPROM_Start,"ax",%progbits
  47              		.align	2
  48              		.global	EEPROM_Start
  49              		.thumb
  50              		.thumb_func
  51              		.type	EEPROM_Start, %function
  52              	EEPROM_Start:
  53              	.LFB1:
  40:Generated_Source\PSoC5/EEPROM.c **** }
  41:Generated_Source\PSoC5/EEPROM.c **** 
  42:Generated_Source\PSoC5/EEPROM.c **** 
  43:Generated_Source\PSoC5/EEPROM.c **** /*******************************************************************************
  44:Generated_Source\PSoC5/EEPROM.c **** * Function Name: EEPROM_Start
  45:Generated_Source\PSoC5/EEPROM.c **** ********************************************************************************
  46:Generated_Source\PSoC5/EEPROM.c **** *
  47:Generated_Source\PSoC5/EEPROM.c **** * Summary:
  48:Generated_Source\PSoC5/EEPROM.c **** *  Starts EEPROM.
  49:Generated_Source\PSoC5/EEPROM.c **** *
  50:Generated_Source\PSoC5/EEPROM.c **** * Parameters:
  51:Generated_Source\PSoC5/EEPROM.c **** *  None
  52:Generated_Source\PSoC5/EEPROM.c **** *
  53:Generated_Source\PSoC5/EEPROM.c **** * Return:
  54:Generated_Source\PSoC5/EEPROM.c **** *  None
  55:Generated_Source\PSoC5/EEPROM.c **** *
  56:Generated_Source\PSoC5/EEPROM.c **** *******************************************************************************/
  57:Generated_Source\PSoC5/EEPROM.c **** void EEPROM_Start(void) 
  58:Generated_Source\PSoC5/EEPROM.c **** {
  54              		.loc 1 58 0
  55              		.cfi_startproc
  56              		@ args = 0, pretend = 0, frame = 0
ARM GAS  C:\Users\Shaunak\AppData\Local\Temp\ccyISjfe.s 			page 3


  57              		@ frame_needed = 0, uses_anonymous_args = 0
  58 0000 08B5     		push	{r3, lr}
  59              		.cfi_def_cfa_offset 8
  60              		.cfi_offset 3, -8
  61              		.cfi_offset 14, -4
  59:Generated_Source\PSoC5/EEPROM.c ****     EEPROM_Enable();
  62              		.loc 1 59 0
  63 0002 FFF7FEFF 		bl	EEPROM_Enable
  64              	.LVL2:
  65 0006 08BD     		pop	{r3, pc}
  66              		.cfi_endproc
  67              	.LFE1:
  68              		.size	EEPROM_Start, .-EEPROM_Start
  69              		.section	.text.EEPROM_Stop,"ax",%progbits
  70              		.align	2
  71              		.global	EEPROM_Stop
  72              		.thumb
  73              		.thumb_func
  74              		.type	EEPROM_Stop, %function
  75              	EEPROM_Stop:
  76              	.LFB2:
  60:Generated_Source\PSoC5/EEPROM.c **** }
  61:Generated_Source\PSoC5/EEPROM.c **** 
  62:Generated_Source\PSoC5/EEPROM.c **** 
  63:Generated_Source\PSoC5/EEPROM.c **** /*******************************************************************************
  64:Generated_Source\PSoC5/EEPROM.c **** * Function Name: EEPROM_Stop
  65:Generated_Source\PSoC5/EEPROM.c **** ********************************************************************************
  66:Generated_Source\PSoC5/EEPROM.c **** *
  67:Generated_Source\PSoC5/EEPROM.c **** * Summary:
  68:Generated_Source\PSoC5/EEPROM.c **** *  Stops and powers down EEPROM.
  69:Generated_Source\PSoC5/EEPROM.c **** *
  70:Generated_Source\PSoC5/EEPROM.c **** * Parameters:
  71:Generated_Source\PSoC5/EEPROM.c **** *  None
  72:Generated_Source\PSoC5/EEPROM.c **** *
  73:Generated_Source\PSoC5/EEPROM.c **** * Return:
  74:Generated_Source\PSoC5/EEPROM.c **** *  None
  75:Generated_Source\PSoC5/EEPROM.c **** *
  76:Generated_Source\PSoC5/EEPROM.c **** *******************************************************************************/
  77:Generated_Source\PSoC5/EEPROM.c **** void EEPROM_Stop (void) 
  78:Generated_Source\PSoC5/EEPROM.c **** {
  77              		.loc 1 78 0
  78              		.cfi_startproc
  79              		@ args = 0, pretend = 0, frame = 0
  80              		@ frame_needed = 0, uses_anonymous_args = 0
  81 0000 08B5     		push	{r3, lr}
  82              		.cfi_def_cfa_offset 8
  83              		.cfi_offset 3, -8
  84              		.cfi_offset 14, -4
  79:Generated_Source\PSoC5/EEPROM.c ****     /* Stop and power down EEPROM block */
  80:Generated_Source\PSoC5/EEPROM.c ****     CyEEPROM_Stop();
  85              		.loc 1 80 0
  86 0002 FFF7FEFF 		bl	CyEEPROM_Stop
  87              	.LVL3:
  88 0006 08BD     		pop	{r3, pc}
  89              		.cfi_endproc
  90              	.LFE2:
  91              		.size	EEPROM_Stop, .-EEPROM_Stop
ARM GAS  C:\Users\Shaunak\AppData\Local\Temp\ccyISjfe.s 			page 4


  92              		.section	.text.EEPROM_WriteByte,"ax",%progbits
  93              		.align	2
  94              		.global	EEPROM_WriteByte
  95              		.thumb
  96              		.thumb_func
  97              		.type	EEPROM_WriteByte, %function
  98              	EEPROM_WriteByte:
  99              	.LFB3:
  81:Generated_Source\PSoC5/EEPROM.c **** }
  82:Generated_Source\PSoC5/EEPROM.c **** 
  83:Generated_Source\PSoC5/EEPROM.c **** 
  84:Generated_Source\PSoC5/EEPROM.c **** /*******************************************************************************
  85:Generated_Source\PSoC5/EEPROM.c **** * Function Name: EEPROM_WriteByte
  86:Generated_Source\PSoC5/EEPROM.c **** ********************************************************************************
  87:Generated_Source\PSoC5/EEPROM.c **** *
  88:Generated_Source\PSoC5/EEPROM.c **** * Summary:
  89:Generated_Source\PSoC5/EEPROM.c **** *  Writes a byte of data to the EEPROM. This function blocks until
  90:Generated_Source\PSoC5/EEPROM.c **** *  the function is complete. For a reliable write procedure to occur you should
  91:Generated_Source\PSoC5/EEPROM.c **** *  call EEPROM_UpdateTemperature() function if the temperature of the
  92:Generated_Source\PSoC5/EEPROM.c **** *  silicon has been changed for more than 10C since the component was started.
  93:Generated_Source\PSoC5/EEPROM.c **** *
  94:Generated_Source\PSoC5/EEPROM.c **** * Parameters:
  95:Generated_Source\PSoC5/EEPROM.c **** *  dataByte:  The byte of data to write to the EEPROM
  96:Generated_Source\PSoC5/EEPROM.c **** *  address:   The address of data to be written. The maximum address is dependent
  97:Generated_Source\PSoC5/EEPROM.c **** *             on the EEPROM size.
  98:Generated_Source\PSoC5/EEPROM.c **** *
  99:Generated_Source\PSoC5/EEPROM.c **** * Return:
 100:Generated_Source\PSoC5/EEPROM.c **** *  CYRET_SUCCESS, if the operation was successful.
 101:Generated_Source\PSoC5/EEPROM.c **** *  CYRET_BAD_PARAM, if the parameter sectorNumber is out of range.
 102:Generated_Source\PSoC5/EEPROM.c **** *  CYRET_LOCKED, if the SPC is being used.
 103:Generated_Source\PSoC5/EEPROM.c **** *  CYRET_UNKNOWN, if there was an SPC error.
 104:Generated_Source\PSoC5/EEPROM.c **** *
 105:Generated_Source\PSoC5/EEPROM.c **** *******************************************************************************/
 106:Generated_Source\PSoC5/EEPROM.c **** cystatus EEPROM_WriteByte(uint8 dataByte, uint16 address) 
 107:Generated_Source\PSoC5/EEPROM.c **** {
 100              		.loc 1 107 0
 101              		.cfi_startproc
 102              		@ args = 0, pretend = 0, frame = 8
 103              		@ frame_needed = 0, uses_anonymous_args = 0
 104              	.LVL4:
 105 0000 30B5     		push	{r4, r5, lr}
 106              		.cfi_def_cfa_offset 12
 107              		.cfi_offset 4, -12
 108              		.cfi_offset 5, -8
 109              		.cfi_offset 14, -4
 110 0002 83B0     		sub	sp, sp, #12
 111              		.cfi_def_cfa_offset 24
 112 0004 0C46     		mov	r4, r1
 113 0006 8DF80700 		strb	r0, [sp, #7]
 108:Generated_Source\PSoC5/EEPROM.c ****     cystatus status;
 109:Generated_Source\PSoC5/EEPROM.c ****     uint16 rowNumber;
 110:Generated_Source\PSoC5/EEPROM.c ****     uint16 byteNumber;
 111:Generated_Source\PSoC5/EEPROM.c ****     
 112:Generated_Source\PSoC5/EEPROM.c ****     CySpcStart();
 114              		.loc 1 112 0
 115 000a FFF7FEFF 		bl	CySpcStart
 116              	.LVL5:
ARM GAS  C:\Users\Shaunak\AppData\Local\Temp\ccyISjfe.s 			page 5


 113:Generated_Source\PSoC5/EEPROM.c **** 
 114:Generated_Source\PSoC5/EEPROM.c ****     if (address < CY_EEPROM_SIZE)
 117              		.loc 1 114 0
 118 000e B4F5006F 		cmp	r4, #2048
 119 0012 52D2     		bcs	.L14
 115:Generated_Source\PSoC5/EEPROM.c ****     {
 116:Generated_Source\PSoC5/EEPROM.c ****         rowNumber = address/(uint16)CY_EEPROM_SIZEOF_ROW;
 120              		.loc 1 116 0
 121 0014 2509     		lsrs	r5, r4, #4
 122              	.LVL6:
 117:Generated_Source\PSoC5/EEPROM.c ****         byteNumber = address - (rowNumber * ((uint16)CY_EEPROM_SIZEOF_ROW));
 123              		.loc 1 117 0
 124 0016 A4EB0514 		sub	r4, r4, r5, lsl #4
 125 001a A4B2     		uxth	r4, r4
 126              	.LVL7:
 118:Generated_Source\PSoC5/EEPROM.c ****         if(CYRET_SUCCESS == CySpcLock())
 127              		.loc 1 118 0
 128 001c FFF7FEFF 		bl	CySpcLock
 129              	.LVL8:
 130 0020 0028     		cmp	r0, #0
 131 0022 4CD1     		bne	.L15
 119:Generated_Source\PSoC5/EEPROM.c ****         {
 120:Generated_Source\PSoC5/EEPROM.c ****             status = CySpcLoadMultiByte(CY_SPC_FIRST_EE_ARRAYID, byteNumber, &dataByte, \
 132              		.loc 1 120 0
 133 0024 0123     		movs	r3, #1
 134 0026 0DF10702 		add	r2, sp, #7
 135              	.LVL9:
 136 002a 2146     		mov	r1, r4
 137 002c 4020     		movs	r0, #64
 138 002e FFF7FEFF 		bl	CySpcLoadMultiByte
 139              	.LVL10:
 140 0032 0446     		mov	r4, r0
 141              	.LVL11:
 121:Generated_Source\PSoC5/EEPROM.c ****                                                                     EEPROM_SPC_BYTE_WRITE_SIZE);
 122:Generated_Source\PSoC5/EEPROM.c ****             if (CYRET_STARTED == status)
 142              		.loc 1 122 0
 143 0034 0728     		cmp	r0, #7
 144 0036 2FD1     		bne	.L9
 145              	.L10:
 123:Generated_Source\PSoC5/EEPROM.c ****             {
 124:Generated_Source\PSoC5/EEPROM.c ****                 /* Plan for failure */
 125:Generated_Source\PSoC5/EEPROM.c ****                 status = CYRET_UNKNOWN;
 126:Generated_Source\PSoC5/EEPROM.c **** 
 127:Generated_Source\PSoC5/EEPROM.c ****                 while(CY_SPC_BUSY)
 146              		.loc 1 127 0 discriminator 1
 147 0038 234B     		ldr	r3, .L23
 148 003a 1B78     		ldrb	r3, [r3]	@ zero_extendqisi2
 149 003c 13F0020F 		tst	r3, #2
 150 0040 FAD0     		beq	.L10
 128:Generated_Source\PSoC5/EEPROM.c ****                 {
 129:Generated_Source\PSoC5/EEPROM.c ****                     /* Wait until SPC becomes idle */
 130:Generated_Source\PSoC5/EEPROM.c ****                 }
 131:Generated_Source\PSoC5/EEPROM.c **** 
 132:Generated_Source\PSoC5/EEPROM.c ****                 if(CY_SPC_STATUS_SUCCESS == CY_SPC_READ_STATUS)
 151              		.loc 1 132 0
 152 0042 214B     		ldr	r3, .L23
 153 0044 1B78     		ldrb	r3, [r3]	@ zero_extendqisi2
ARM GAS  C:\Users\Shaunak\AppData\Local\Temp\ccyISjfe.s 			page 6


 154 0046 13F0020F 		tst	r3, #2
 155 004a 06D0     		beq	.L16
 156              		.loc 1 132 0 is_stmt 0 discriminator 1
 157 004c 1E4B     		ldr	r3, .L23
 158 004e 1B78     		ldrb	r3, [r3]	@ zero_extendqisi2
 159 0050 9B08     		lsrs	r3, r3, #2
 160 0052 05D0     		beq	.L17
 125:Generated_Source\PSoC5/EEPROM.c **** 
 161              		.loc 1 125 0 is_stmt 1
 162 0054 4FF0FF34 		mov	r4, #-1
 163 0058 03E0     		b	.L11
 164              	.L16:
 165 005a 4FF0FF34 		mov	r4, #-1
 166 005e 00E0     		b	.L11
 167              	.L17:
 133:Generated_Source\PSoC5/EEPROM.c ****                 {
 134:Generated_Source\PSoC5/EEPROM.c ****                     status = CYRET_SUCCESS;
 168              		.loc 1 134 0
 169 0060 0024     		movs	r4, #0
 170              	.L11:
 171              	.LVL12:
 135:Generated_Source\PSoC5/EEPROM.c ****                 }
 136:Generated_Source\PSoC5/EEPROM.c ****                 /* Command to erase and program the row. */
 137:Generated_Source\PSoC5/EEPROM.c ****                 if(CYRET_SUCCESS == status)
 172              		.loc 1 137 0
 173 0062 E4B9     		cbnz	r4, .L18
 138:Generated_Source\PSoC5/EEPROM.c ****                 {
 139:Generated_Source\PSoC5/EEPROM.c ****                     if(CySpcWriteRow(CY_SPC_FIRST_EE_ARRAYID, (uint16)rowNumber, dieTemperature[0u]
 174              		.loc 1 139 0
 175 0064 194A     		ldr	r2, .L23+4
 176 0066 5378     		ldrb	r3, [r2, #1]	@ zero_extendqisi2
 177 0068 1278     		ldrb	r2, [r2]	@ zero_extendqisi2
 178 006a 2946     		mov	r1, r5
 179 006c 4020     		movs	r0, #64
 180 006e FFF7FEFF 		bl	CySpcWriteRow
 181              	.LVL13:
 182 0072 0728     		cmp	r0, #7
 183 0074 16D1     		bne	.L19
 184              	.L13:
 140:Generated_Source\PSoC5/EEPROM.c ****                     dieTemperature[1u]) == CYRET_STARTED)
 141:Generated_Source\PSoC5/EEPROM.c ****                     {
 142:Generated_Source\PSoC5/EEPROM.c ****                         /* Plan for failure */
 143:Generated_Source\PSoC5/EEPROM.c ****                         status = CYRET_UNKNOWN;
 144:Generated_Source\PSoC5/EEPROM.c **** 
 145:Generated_Source\PSoC5/EEPROM.c ****                         while(CY_SPC_BUSY)
 185              		.loc 1 145 0 discriminator 1
 186 0076 144B     		ldr	r3, .L23
 187 0078 1B78     		ldrb	r3, [r3]	@ zero_extendqisi2
 188 007a 13F0020F 		tst	r3, #2
 189 007e FAD0     		beq	.L13
 146:Generated_Source\PSoC5/EEPROM.c ****                         {
 147:Generated_Source\PSoC5/EEPROM.c ****                             /* Wait until SPC becomes idle */
 148:Generated_Source\PSoC5/EEPROM.c ****                         }
 149:Generated_Source\PSoC5/EEPROM.c **** 
 150:Generated_Source\PSoC5/EEPROM.c ****                         /* SPC is idle now */
 151:Generated_Source\PSoC5/EEPROM.c ****                         if(CY_SPC_STATUS_SUCCESS == CY_SPC_READ_STATUS)
 190              		.loc 1 151 0
ARM GAS  C:\Users\Shaunak\AppData\Local\Temp\ccyISjfe.s 			page 7


 191 0080 114B     		ldr	r3, .L23
 192 0082 1B78     		ldrb	r3, [r3]	@ zero_extendqisi2
 193 0084 13F0020F 		tst	r3, #2
 194 0088 0FD0     		beq	.L20
 195              		.loc 1 151 0 is_stmt 0 discriminator 1
 196 008a 0F4B     		ldr	r3, .L23
 197 008c 1B78     		ldrb	r3, [r3]	@ zero_extendqisi2
 198 008e 9B08     		lsrs	r3, r3, #2
 199 0090 10D0     		beq	.L12
 143:Generated_Source\PSoC5/EEPROM.c **** 
 200              		.loc 1 143 0 is_stmt 1
 201 0092 4FF0FF34 		mov	r4, #-1
 202              	.LVL14:
 203 0096 0DE0     		b	.L12
 204              	.LVL15:
 205              	.L9:
 152:Generated_Source\PSoC5/EEPROM.c ****                         {
 153:Generated_Source\PSoC5/EEPROM.c ****                             status = CYRET_SUCCESS;
 154:Generated_Source\PSoC5/EEPROM.c ****                         }
 155:Generated_Source\PSoC5/EEPROM.c ****                     }
 156:Generated_Source\PSoC5/EEPROM.c ****                     else
 157:Generated_Source\PSoC5/EEPROM.c ****                     {
 158:Generated_Source\PSoC5/EEPROM.c ****                         status = CYRET_UNKNOWN;
 159:Generated_Source\PSoC5/EEPROM.c ****                     }
 160:Generated_Source\PSoC5/EEPROM.c ****                 }
 161:Generated_Source\PSoC5/EEPROM.c ****                 else
 162:Generated_Source\PSoC5/EEPROM.c ****                 {
 163:Generated_Source\PSoC5/EEPROM.c ****                     status = CYRET_UNKNOWN;
 164:Generated_Source\PSoC5/EEPROM.c ****                 }
 165:Generated_Source\PSoC5/EEPROM.c ****             }
 166:Generated_Source\PSoC5/EEPROM.c ****             else
 167:Generated_Source\PSoC5/EEPROM.c ****             {
 168:Generated_Source\PSoC5/EEPROM.c ****                 if (CYRET_BAD_PARAM != status)
 206              		.loc 1 168 0
 207 0098 0128     		cmp	r0, #1
 208 009a 09D1     		bne	.L21
 209 009c 0AE0     		b	.L12
 210              	.LVL16:
 211              	.L18:
 163:Generated_Source\PSoC5/EEPROM.c ****                 }
 212              		.loc 1 163 0
 213 009e 4FF0FF34 		mov	r4, #-1
 214              	.LVL17:
 215 00a2 07E0     		b	.L12
 216              	.LVL18:
 217              	.L19:
 158:Generated_Source\PSoC5/EEPROM.c ****                     }
 218              		.loc 1 158 0
 219 00a4 4FF0FF34 		mov	r4, #-1
 220              	.LVL19:
 221 00a8 04E0     		b	.L12
 222              	.LVL20:
 223              	.L20:
 143:Generated_Source\PSoC5/EEPROM.c **** 
 224              		.loc 1 143 0
 225 00aa 4FF0FF34 		mov	r4, #-1
 226              	.LVL21:
ARM GAS  C:\Users\Shaunak\AppData\Local\Temp\ccyISjfe.s 			page 8


 227 00ae 01E0     		b	.L12
 228              	.LVL22:
 229              	.L21:
 169:Generated_Source\PSoC5/EEPROM.c ****                 {
 170:Generated_Source\PSoC5/EEPROM.c ****                     status = CYRET_UNKNOWN;
 230              		.loc 1 170 0
 231 00b0 4FF0FF34 		mov	r4, #-1
 232              	.LVL23:
 233              	.L12:
 171:Generated_Source\PSoC5/EEPROM.c ****                 }
 172:Generated_Source\PSoC5/EEPROM.c ****             }
 173:Generated_Source\PSoC5/EEPROM.c ****             CySpcUnlock();
 234              		.loc 1 173 0
 235 00b4 FFF7FEFF 		bl	CySpcUnlock
 236              	.LVL24:
 237 00b8 02E0     		b	.L8
 238              	.LVL25:
 239              	.L14:
 174:Generated_Source\PSoC5/EEPROM.c ****         }
 175:Generated_Source\PSoC5/EEPROM.c ****         else
 176:Generated_Source\PSoC5/EEPROM.c ****         {
 177:Generated_Source\PSoC5/EEPROM.c ****             status = CYRET_LOCKED;
 178:Generated_Source\PSoC5/EEPROM.c ****         }
 179:Generated_Source\PSoC5/EEPROM.c ****     }
 180:Generated_Source\PSoC5/EEPROM.c ****     else
 181:Generated_Source\PSoC5/EEPROM.c ****     {
 182:Generated_Source\PSoC5/EEPROM.c ****         status = CYRET_BAD_PARAM;
 240              		.loc 1 182 0
 241 00ba 0124     		movs	r4, #1
 242 00bc 00E0     		b	.L8
 243              	.LVL26:
 244              	.L15:
 177:Generated_Source\PSoC5/EEPROM.c ****         }
 245              		.loc 1 177 0
 246 00be 0424     		movs	r4, #4
 247              	.LVL27:
 248              	.L8:
 183:Generated_Source\PSoC5/EEPROM.c ****     }
 184:Generated_Source\PSoC5/EEPROM.c **** 
 185:Generated_Source\PSoC5/EEPROM.c **** 
 186:Generated_Source\PSoC5/EEPROM.c ****     return (status);
 187:Generated_Source\PSoC5/EEPROM.c **** }
 249              		.loc 1 187 0
 250 00c0 2046     		mov	r0, r4
 251 00c2 03B0     		add	sp, sp, #12
 252              		.cfi_def_cfa_offset 12
 253              		@ sp needed
 254 00c4 30BD     		pop	{r4, r5, pc}
 255              	.LVL28:
 256              	.L24:
 257 00c6 00BF     		.align	2
 258              	.L23:
 259 00c8 22470040 		.word	1073760034
 260 00cc 00000000 		.word	dieTemperature
 261              		.cfi_endproc
 262              	.LFE3:
 263              		.size	EEPROM_WriteByte, .-EEPROM_WriteByte
ARM GAS  C:\Users\Shaunak\AppData\Local\Temp\ccyISjfe.s 			page 9


 264              		.section	.text.EEPROM_ReadByte,"ax",%progbits
 265              		.align	2
 266              		.global	EEPROM_ReadByte
 267              		.thumb
 268              		.thumb_func
 269              		.type	EEPROM_ReadByte, %function
 270              	EEPROM_ReadByte:
 271              	.LFB4:
 188:Generated_Source\PSoC5/EEPROM.c **** 
 189:Generated_Source\PSoC5/EEPROM.c **** 
 190:Generated_Source\PSoC5/EEPROM.c **** /*******************************************************************************
 191:Generated_Source\PSoC5/EEPROM.c **** * Function Name: EEPROM_ReadByte
 192:Generated_Source\PSoC5/EEPROM.c **** ********************************************************************************
 193:Generated_Source\PSoC5/EEPROM.c **** *
 194:Generated_Source\PSoC5/EEPROM.c **** * Summary:
 195:Generated_Source\PSoC5/EEPROM.c **** *  Reads and returns a byte of data from the on-chip EEPROM memory. Although
 196:Generated_Source\PSoC5/EEPROM.c **** *  the data is present in the CPU memory space, this function provides an
 197:Generated_Source\PSoC5/EEPROM.c **** *  intuitive user interface, addressing the EEPROM memory as a separate block with
 198:Generated_Source\PSoC5/EEPROM.c **** *  the first EERPOM byte address equal to 0x0000.
 199:Generated_Source\PSoC5/EEPROM.c **** *
 200:Generated_Source\PSoC5/EEPROM.c **** * Parameters:
 201:Generated_Source\PSoC5/EEPROM.c **** *  address:   The address of data to be read. The maximum address is limited by the
 202:Generated_Source\PSoC5/EEPROM.c **** *             size of the EEPROM array on a specific device.
 203:Generated_Source\PSoC5/EEPROM.c **** *
 204:Generated_Source\PSoC5/EEPROM.c **** * Return:
 205:Generated_Source\PSoC5/EEPROM.c **** *  Data located at an address.
 206:Generated_Source\PSoC5/EEPROM.c **** *
 207:Generated_Source\PSoC5/EEPROM.c **** *******************************************************************************/
 208:Generated_Source\PSoC5/EEPROM.c **** uint8 EEPROM_ReadByte(uint16 address) 
 209:Generated_Source\PSoC5/EEPROM.c **** {
 272              		.loc 1 209 0
 273              		.cfi_startproc
 274              		@ args = 0, pretend = 0, frame = 0
 275              		@ frame_needed = 0, uses_anonymous_args = 0
 276              	.LVL29:
 277 0000 38B5     		push	{r3, r4, r5, lr}
 278              		.cfi_def_cfa_offset 16
 279              		.cfi_offset 3, -16
 280              		.cfi_offset 4, -12
 281              		.cfi_offset 5, -8
 282              		.cfi_offset 14, -4
 283 0002 0446     		mov	r4, r0
 210:Generated_Source\PSoC5/EEPROM.c ****     uint8 retByte;
 211:Generated_Source\PSoC5/EEPROM.c ****     uint8 interruptState;
 212:Generated_Source\PSoC5/EEPROM.c **** 
 213:Generated_Source\PSoC5/EEPROM.c ****     interruptState = CyEnterCriticalSection();
 284              		.loc 1 213 0
 285 0004 FFF7FEFF 		bl	CyEnterCriticalSection
 286              	.LVL30:
 287 0008 0546     		mov	r5, r0
 288              	.LVL31:
 214:Generated_Source\PSoC5/EEPROM.c **** 
 215:Generated_Source\PSoC5/EEPROM.c ****     /* Request access to EEPROM for reading.
 216:Generated_Source\PSoC5/EEPROM.c ****     This is needed to reserve PHUB for read operation from EEPROM */
 217:Generated_Source\PSoC5/EEPROM.c ****     CyEEPROM_ReadReserve();
 289              		.loc 1 217 0
 290 000a FFF7FEFF 		bl	CyEEPROM_ReadReserve
ARM GAS  C:\Users\Shaunak\AppData\Local\Temp\ccyISjfe.s 			page 10


 291              	.LVL32:
 218:Generated_Source\PSoC5/EEPROM.c ****     
 219:Generated_Source\PSoC5/EEPROM.c ****     retByte = *((reg8 *) (CYDEV_EE_BASE + address));
 292              		.loc 1 219 0
 293 000e 04F18040 		add	r0, r4, #1073741824
 294 0012 00F50040 		add	r0, r0, #32768
 295 0016 0478     		ldrb	r4, [r0]	@ zero_extendqisi2
 296 0018 E4B2     		uxtb	r4, r4
 297              	.LVL33:
 220:Generated_Source\PSoC5/EEPROM.c **** 
 221:Generated_Source\PSoC5/EEPROM.c ****     /* Release EEPROM array */
 222:Generated_Source\PSoC5/EEPROM.c ****     CyEEPROM_ReadRelease();
 298              		.loc 1 222 0
 299 001a FFF7FEFF 		bl	CyEEPROM_ReadRelease
 300              	.LVL34:
 223:Generated_Source\PSoC5/EEPROM.c ****     
 224:Generated_Source\PSoC5/EEPROM.c ****     CyExitCriticalSection(interruptState);
 301              		.loc 1 224 0
 302 001e 2846     		mov	r0, r5
 303 0020 FFF7FEFF 		bl	CyExitCriticalSection
 304              	.LVL35:
 225:Generated_Source\PSoC5/EEPROM.c **** 
 226:Generated_Source\PSoC5/EEPROM.c ****     return (retByte);
 227:Generated_Source\PSoC5/EEPROM.c **** }
 305              		.loc 1 227 0
 306 0024 2046     		mov	r0, r4
 307 0026 38BD     		pop	{r3, r4, r5, pc}
 308              		.cfi_endproc
 309              	.LFE4:
 310              		.size	EEPROM_ReadByte, .-EEPROM_ReadByte
 311              		.section	.text.EEPROM_UpdateTemperature,"ax",%progbits
 312              		.align	2
 313              		.global	EEPROM_UpdateTemperature
 314              		.thumb
 315              		.thumb_func
 316              		.type	EEPROM_UpdateTemperature, %function
 317              	EEPROM_UpdateTemperature:
 318              	.LFB5:
 228:Generated_Source\PSoC5/EEPROM.c **** 
 229:Generated_Source\PSoC5/EEPROM.c **** 
 230:Generated_Source\PSoC5/EEPROM.c **** /*******************************************************************************
 231:Generated_Source\PSoC5/EEPROM.c **** * Function Name: EEPROM_UpdateTemperature
 232:Generated_Source\PSoC5/EEPROM.c **** ********************************************************************************
 233:Generated_Source\PSoC5/EEPROM.c **** *
 234:Generated_Source\PSoC5/EEPROM.c **** * Summary:
 235:Generated_Source\PSoC5/EEPROM.c **** *  Updates and stores the temperature value. This function should be called
 236:Generated_Source\PSoC5/EEPROM.c **** *  before EEPROM writes if the temperature may have been changed by more than
 237:Generated_Source\PSoC5/EEPROM.c **** *  10 degrees Celsius.
 238:Generated_Source\PSoC5/EEPROM.c **** *
 239:Generated_Source\PSoC5/EEPROM.c **** * Parameters:
 240:Generated_Source\PSoC5/EEPROM.c **** *  None
 241:Generated_Source\PSoC5/EEPROM.c **** *
 242:Generated_Source\PSoC5/EEPROM.c **** * Return:
 243:Generated_Source\PSoC5/EEPROM.c **** *  Status of operation, 0 if operation complete, non-zero value if error
 244:Generated_Source\PSoC5/EEPROM.c **** *  was detected.
 245:Generated_Source\PSoC5/EEPROM.c **** *
 246:Generated_Source\PSoC5/EEPROM.c **** *******************************************************************************/
ARM GAS  C:\Users\Shaunak\AppData\Local\Temp\ccyISjfe.s 			page 11


 247:Generated_Source\PSoC5/EEPROM.c **** uint8 EEPROM_UpdateTemperature(void) 
 248:Generated_Source\PSoC5/EEPROM.c **** {
 319              		.loc 1 248 0
 320              		.cfi_startproc
 321              		@ args = 0, pretend = 0, frame = 0
 322              		@ frame_needed = 0, uses_anonymous_args = 0
 323 0000 08B5     		push	{r3, lr}
 324              		.cfi_def_cfa_offset 8
 325              		.cfi_offset 3, -8
 326              		.cfi_offset 14, -4
 249:Generated_Source\PSoC5/EEPROM.c ****     return ((uint8)CySetTemp());
 327              		.loc 1 249 0
 328 0002 FFF7FEFF 		bl	CySetTemp
 329              	.LVL36:
 250:Generated_Source\PSoC5/EEPROM.c **** }
 330              		.loc 1 250 0
 331 0006 C0B2     		uxtb	r0, r0
 332 0008 08BD     		pop	{r3, pc}
 333              		.cfi_endproc
 334              	.LFE5:
 335              		.size	EEPROM_UpdateTemperature, .-EEPROM_UpdateTemperature
 336              		.section	.text.EEPROM_EraseSector,"ax",%progbits
 337              		.align	2
 338              		.global	EEPROM_EraseSector
 339              		.thumb
 340              		.thumb_func
 341              		.type	EEPROM_EraseSector, %function
 342              	EEPROM_EraseSector:
 343              	.LFB6:
 251:Generated_Source\PSoC5/EEPROM.c **** 
 252:Generated_Source\PSoC5/EEPROM.c **** 
 253:Generated_Source\PSoC5/EEPROM.c **** /*******************************************************************************
 254:Generated_Source\PSoC5/EEPROM.c **** * Function Name: EEPROM_EraseSector
 255:Generated_Source\PSoC5/EEPROM.c **** ********************************************************************************
 256:Generated_Source\PSoC5/EEPROM.c **** *
 257:Generated_Source\PSoC5/EEPROM.c **** * Summary:
 258:Generated_Source\PSoC5/EEPROM.c **** *  Erase an EEPROM sector (64 rows). This function blocks until the erase
 259:Generated_Source\PSoC5/EEPROM.c **** *  operation is complete. Using this API helps to erase the EEPROM sector at
 260:Generated_Source\PSoC5/EEPROM.c **** *  a time. This is faster than using individual writes but affects a cycle
 261:Generated_Source\PSoC5/EEPROM.c **** *  recourse of the whole EEPROM row.
 262:Generated_Source\PSoC5/EEPROM.c **** *
 263:Generated_Source\PSoC5/EEPROM.c **** * Parameters:
 264:Generated_Source\PSoC5/EEPROM.c **** *  sectorNumber:  The sector number to erase.
 265:Generated_Source\PSoC5/EEPROM.c **** *
 266:Generated_Source\PSoC5/EEPROM.c **** * Return:
 267:Generated_Source\PSoC5/EEPROM.c **** *  CYRET_SUCCESS, if the operation was successful.
 268:Generated_Source\PSoC5/EEPROM.c **** *  CYRET_BAD_PARAM, if the parameter sectorNumber is out of range.
 269:Generated_Source\PSoC5/EEPROM.c **** *  CYRET_LOCKED, if the SPC is being used.
 270:Generated_Source\PSoC5/EEPROM.c **** *  CYRET_UNKNOWN, if there was an SPC error.
 271:Generated_Source\PSoC5/EEPROM.c **** *
 272:Generated_Source\PSoC5/EEPROM.c **** *******************************************************************************/
 273:Generated_Source\PSoC5/EEPROM.c **** cystatus EEPROM_EraseSector(uint8 sectorNumber) 
 274:Generated_Source\PSoC5/EEPROM.c **** {
 344              		.loc 1 274 0
 345              		.cfi_startproc
 346              		@ args = 0, pretend = 0, frame = 0
 347              		@ frame_needed = 0, uses_anonymous_args = 0
ARM GAS  C:\Users\Shaunak\AppData\Local\Temp\ccyISjfe.s 			page 12


 348              	.LVL37:
 349 0000 10B5     		push	{r4, lr}
 350              		.cfi_def_cfa_offset 8
 351              		.cfi_offset 4, -8
 352              		.cfi_offset 14, -4
 353 0002 0446     		mov	r4, r0
 275:Generated_Source\PSoC5/EEPROM.c ****     cystatus status;
 276:Generated_Source\PSoC5/EEPROM.c ****     
 277:Generated_Source\PSoC5/EEPROM.c ****     CySpcStart();
 354              		.loc 1 277 0
 355 0004 FFF7FEFF 		bl	CySpcStart
 356              	.LVL38:
 278:Generated_Source\PSoC5/EEPROM.c **** 
 279:Generated_Source\PSoC5/EEPROM.c ****     if(sectorNumber < (uint8) EEPROM_SECTORS_NUMBER)
 357              		.loc 1 279 0
 358 0008 012C     		cmp	r4, #1
 359 000a 23D8     		bhi	.L33
 280:Generated_Source\PSoC5/EEPROM.c ****     {
 281:Generated_Source\PSoC5/EEPROM.c ****         /* See if we can get SPC. */
 282:Generated_Source\PSoC5/EEPROM.c ****         if(CySpcLock() == CYRET_SUCCESS)
 360              		.loc 1 282 0
 361 000c FFF7FEFF 		bl	CySpcLock
 362              	.LVL39:
 363 0010 10BB     		cbnz	r0, .L34
 283:Generated_Source\PSoC5/EEPROM.c ****         {
 284:Generated_Source\PSoC5/EEPROM.c ****             if(CySpcEraseSector(CY_SPC_FIRST_EE_ARRAYID, sectorNumber) == CYRET_STARTED)
 364              		.loc 1 284 0
 365 0012 2146     		mov	r1, r4
 366 0014 4020     		movs	r0, #64
 367 0016 FFF7FEFF 		bl	CySpcEraseSector
 368              	.LVL40:
 369 001a 0728     		cmp	r0, #7
 370 001c 10D1     		bne	.L35
 371              	.L32:
 285:Generated_Source\PSoC5/EEPROM.c ****             {
 286:Generated_Source\PSoC5/EEPROM.c ****                 /* Plan for failure */
 287:Generated_Source\PSoC5/EEPROM.c ****                 status = CYRET_UNKNOWN;
 288:Generated_Source\PSoC5/EEPROM.c **** 
 289:Generated_Source\PSoC5/EEPROM.c ****                 while(CY_SPC_BUSY)
 372              		.loc 1 289 0 discriminator 1
 373 001e 104B     		ldr	r3, .L39
 374 0020 1B78     		ldrb	r3, [r3]	@ zero_extendqisi2
 375 0022 13F0020F 		tst	r3, #2
 376 0026 FAD0     		beq	.L32
 290:Generated_Source\PSoC5/EEPROM.c ****                 {
 291:Generated_Source\PSoC5/EEPROM.c ****                     /* Wait until SPC becomes idle */
 292:Generated_Source\PSoC5/EEPROM.c ****                 }
 293:Generated_Source\PSoC5/EEPROM.c **** 
 294:Generated_Source\PSoC5/EEPROM.c ****                 /* SPC is idle now */
 295:Generated_Source\PSoC5/EEPROM.c ****                 if(CY_SPC_STATUS_SUCCESS == CY_SPC_READ_STATUS)
 377              		.loc 1 295 0
 378 0028 0D4B     		ldr	r3, .L39
 379 002a 1B78     		ldrb	r3, [r3]	@ zero_extendqisi2
 380 002c 13F0020F 		tst	r3, #2
 381 0030 09D0     		beq	.L36
 382              		.loc 1 295 0 is_stmt 0 discriminator 1
 383 0032 0B4B     		ldr	r3, .L39
ARM GAS  C:\Users\Shaunak\AppData\Local\Temp\ccyISjfe.s 			page 13


 384 0034 1B78     		ldrb	r3, [r3]	@ zero_extendqisi2
 385 0036 9B08     		lsrs	r3, r3, #2
 386 0038 08D0     		beq	.L37
 287:Generated_Source\PSoC5/EEPROM.c **** 
 387              		.loc 1 287 0 is_stmt 1
 388 003a 4FF0FF34 		mov	r4, #-1
 389 003e 06E0     		b	.L31
 390              	.L35:
 296:Generated_Source\PSoC5/EEPROM.c ****                 {
 297:Generated_Source\PSoC5/EEPROM.c ****                     status = CYRET_SUCCESS;
 298:Generated_Source\PSoC5/EEPROM.c ****                 }
 299:Generated_Source\PSoC5/EEPROM.c ****             }
 300:Generated_Source\PSoC5/EEPROM.c ****             else
 301:Generated_Source\PSoC5/EEPROM.c ****             {
 302:Generated_Source\PSoC5/EEPROM.c ****                 status = CYRET_UNKNOWN;
 391              		.loc 1 302 0
 392 0040 4FF0FF34 		mov	r4, #-1
 393 0044 03E0     		b	.L31
 394              	.L36:
 287:Generated_Source\PSoC5/EEPROM.c **** 
 395              		.loc 1 287 0
 396 0046 4FF0FF34 		mov	r4, #-1
 397 004a 00E0     		b	.L31
 398              	.L37:
 297:Generated_Source\PSoC5/EEPROM.c ****                 }
 399              		.loc 1 297 0
 400 004c 0024     		movs	r4, #0
 401              	.L31:
 402              	.LVL41:
 303:Generated_Source\PSoC5/EEPROM.c ****             }
 304:Generated_Source\PSoC5/EEPROM.c **** 
 305:Generated_Source\PSoC5/EEPROM.c ****             /* Unlock SPC so that someone else can use it. */
 306:Generated_Source\PSoC5/EEPROM.c ****             CySpcUnlock();
 403              		.loc 1 306 0
 404 004e FFF7FEFF 		bl	CySpcUnlock
 405              	.LVL42:
 406 0052 02E0     		b	.L30
 407              	.LVL43:
 408              	.L33:
 307:Generated_Source\PSoC5/EEPROM.c ****         }
 308:Generated_Source\PSoC5/EEPROM.c ****         else
 309:Generated_Source\PSoC5/EEPROM.c ****         {
 310:Generated_Source\PSoC5/EEPROM.c ****             status = CYRET_LOCKED;
 311:Generated_Source\PSoC5/EEPROM.c ****         }
 312:Generated_Source\PSoC5/EEPROM.c ****     }
 313:Generated_Source\PSoC5/EEPROM.c ****     else
 314:Generated_Source\PSoC5/EEPROM.c ****     {
 315:Generated_Source\PSoC5/EEPROM.c ****         status = CYRET_BAD_PARAM;
 409              		.loc 1 315 0
 410 0054 0124     		movs	r4, #1
 411 0056 00E0     		b	.L30
 412              	.L34:
 310:Generated_Source\PSoC5/EEPROM.c ****         }
 413              		.loc 1 310 0
 414 0058 0424     		movs	r4, #4
 415              	.L30:
 416              	.LVL44:
ARM GAS  C:\Users\Shaunak\AppData\Local\Temp\ccyISjfe.s 			page 14


 316:Generated_Source\PSoC5/EEPROM.c ****     }
 317:Generated_Source\PSoC5/EEPROM.c **** 
 318:Generated_Source\PSoC5/EEPROM.c ****     return(status);
 319:Generated_Source\PSoC5/EEPROM.c **** }
 417              		.loc 1 319 0
 418 005a 2046     		mov	r0, r4
 419 005c 10BD     		pop	{r4, pc}
 420              	.LVL45:
 421              	.L40:
 422 005e 00BF     		.align	2
 423              	.L39:
 424 0060 22470040 		.word	1073760034
 425              		.cfi_endproc
 426              	.LFE6:
 427              		.size	EEPROM_EraseSector, .-EEPROM_EraseSector
 428              		.section	.text.EEPROM_Write,"ax",%progbits
 429              		.align	2
 430              		.global	EEPROM_Write
 431              		.thumb
 432              		.thumb_func
 433              		.type	EEPROM_Write, %function
 434              	EEPROM_Write:
 435              	.LFB7:
 320:Generated_Source\PSoC5/EEPROM.c **** 
 321:Generated_Source\PSoC5/EEPROM.c **** 
 322:Generated_Source\PSoC5/EEPROM.c **** /*******************************************************************************
 323:Generated_Source\PSoC5/EEPROM.c **** * Function Name: EEPROM_Write
 324:Generated_Source\PSoC5/EEPROM.c **** ********************************************************************************
 325:Generated_Source\PSoC5/EEPROM.c **** *
 326:Generated_Source\PSoC5/EEPROM.c **** * Summary:
 327:Generated_Source\PSoC5/EEPROM.c **** *  Writes a row (16 bytes) of data to the EEPROM. This function blocks until
 328:Generated_Source\PSoC5/EEPROM.c **** *  the write operation is complete. Compared to functions that write one byte,
 329:Generated_Source\PSoC5/EEPROM.c **** *  this function allows writing a whole row (16 bytes) at a time. For
 330:Generated_Source\PSoC5/EEPROM.c **** *  a reliable write procedure to occur you should call the
 331:Generated_Source\PSoC5/EEPROM.c **** *  EEPROM_UpdateTemperature() function if the temperature of the
 332:Generated_Source\PSoC5/EEPROM.c **** *  silicon has changed for more than 10C since component was started.
 333:Generated_Source\PSoC5/EEPROM.c **** *
 334:Generated_Source\PSoC5/EEPROM.c **** * Parameters:
 335:Generated_Source\PSoC5/EEPROM.c **** *  rowData:    The address of the data to write to the EEPROM.
 336:Generated_Source\PSoC5/EEPROM.c **** *  rowNumber:  The row number to write.
 337:Generated_Source\PSoC5/EEPROM.c **** *
 338:Generated_Source\PSoC5/EEPROM.c **** * Return:
 339:Generated_Source\PSoC5/EEPROM.c **** *  CYRET_SUCCESS, if the operation was successful.
 340:Generated_Source\PSoC5/EEPROM.c **** *  CYRET_BAD_PARAM, if the parameter rowNumber is out of range.
 341:Generated_Source\PSoC5/EEPROM.c **** *  CYRET_LOCKED, if the SPC is being used.
 342:Generated_Source\PSoC5/EEPROM.c **** *  CYRET_UNKNOWN, if there was an SPC error.
 343:Generated_Source\PSoC5/EEPROM.c **** *
 344:Generated_Source\PSoC5/EEPROM.c **** *******************************************************************************/
 345:Generated_Source\PSoC5/EEPROM.c **** cystatus EEPROM_Write(const uint8 * rowData, uint8 rowNumber) 
 346:Generated_Source\PSoC5/EEPROM.c **** {
 436              		.loc 1 346 0
 437              		.cfi_startproc
 438              		@ args = 0, pretend = 0, frame = 0
 439              		@ frame_needed = 0, uses_anonymous_args = 0
 440              	.LVL46:
 441 0000 38B5     		push	{r3, r4, r5, lr}
 442              		.cfi_def_cfa_offset 16
ARM GAS  C:\Users\Shaunak\AppData\Local\Temp\ccyISjfe.s 			page 15


 443              		.cfi_offset 3, -16
 444              		.cfi_offset 4, -12
 445              		.cfi_offset 5, -8
 446              		.cfi_offset 14, -4
 447 0002 0446     		mov	r4, r0
 448 0004 0D46     		mov	r5, r1
 347:Generated_Source\PSoC5/EEPROM.c ****     cystatus status;
 348:Generated_Source\PSoC5/EEPROM.c ****     
 349:Generated_Source\PSoC5/EEPROM.c ****     CySpcStart();
 449              		.loc 1 349 0
 450 0006 FFF7FEFF 		bl	CySpcStart
 451              	.LVL47:
 350:Generated_Source\PSoC5/EEPROM.c **** 
 351:Generated_Source\PSoC5/EEPROM.c ****     if(rowNumber < (uint8) CY_EEPROM_NUMBER_ROWS)
 452              		.loc 1 351 0
 453 000a 15F0800F 		tst	r5, #128
 454 000e 48D1     		bne	.L47
 352:Generated_Source\PSoC5/EEPROM.c ****     {
 353:Generated_Source\PSoC5/EEPROM.c ****         /* See if we can get SPC. */
 354:Generated_Source\PSoC5/EEPROM.c ****         if(CySpcLock() == CYRET_SUCCESS)
 455              		.loc 1 354 0
 456 0010 FFF7FEFF 		bl	CySpcLock
 457              	.LVL48:
 458 0014 0028     		cmp	r0, #0
 459 0016 46D1     		bne	.L48
 460              	.LVL49:
 355:Generated_Source\PSoC5/EEPROM.c ****         {
 356:Generated_Source\PSoC5/EEPROM.c ****             /* Plan for failure */
 357:Generated_Source\PSoC5/EEPROM.c ****             status = CYRET_UNKNOWN;
 358:Generated_Source\PSoC5/EEPROM.c **** 
 359:Generated_Source\PSoC5/EEPROM.c ****             /* Command to load a row of data */
 360:Generated_Source\PSoC5/EEPROM.c ****             if(CySpcLoadRow(CY_SPC_FIRST_EE_ARRAYID, rowData, CYDEV_EEPROM_ROW_SIZE) == CYRET_START
 461              		.loc 1 360 0
 462 0018 1022     		movs	r2, #16
 463 001a 2146     		mov	r1, r4
 464 001c 4020     		movs	r0, #64
 465 001e FFF7FEFF 		bl	CySpcLoadRow
 466              	.LVL50:
 467 0022 0728     		cmp	r0, #7
 468 0024 2FD1     		bne	.L49
 469              	.L44:
 361:Generated_Source\PSoC5/EEPROM.c ****             {
 362:Generated_Source\PSoC5/EEPROM.c ****                 while(CY_SPC_BUSY)
 470              		.loc 1 362 0 discriminator 1
 471 0026 214B     		ldr	r3, .L56
 472 0028 1B78     		ldrb	r3, [r3]	@ zero_extendqisi2
 473 002a 13F0020F 		tst	r3, #2
 474 002e FAD0     		beq	.L44
 363:Generated_Source\PSoC5/EEPROM.c ****                 {
 364:Generated_Source\PSoC5/EEPROM.c ****                     /* Wait until SPC becomes idle */
 365:Generated_Source\PSoC5/EEPROM.c ****                 }
 366:Generated_Source\PSoC5/EEPROM.c **** 
 367:Generated_Source\PSoC5/EEPROM.c ****                 /* SPC is idle now */
 368:Generated_Source\PSoC5/EEPROM.c ****                 if(CY_SPC_STATUS_SUCCESS == CY_SPC_READ_STATUS)
 475              		.loc 1 368 0
 476 0030 1E4B     		ldr	r3, .L56
 477 0032 1B78     		ldrb	r3, [r3]	@ zero_extendqisi2
ARM GAS  C:\Users\Shaunak\AppData\Local\Temp\ccyISjfe.s 			page 16


 478 0034 13F0020F 		tst	r3, #2
 479 0038 06D0     		beq	.L50
 480              		.loc 1 368 0 is_stmt 0 discriminator 1
 481 003a 1C4B     		ldr	r3, .L56
 482 003c 1B78     		ldrb	r3, [r3]	@ zero_extendqisi2
 483 003e 9B08     		lsrs	r3, r3, #2
 484 0040 05D0     		beq	.L51
 357:Generated_Source\PSoC5/EEPROM.c **** 
 485              		.loc 1 357 0 is_stmt 1
 486 0042 4FF0FF34 		mov	r4, #-1
 487              	.LVL51:
 488 0046 03E0     		b	.L45
 489              	.LVL52:
 490              	.L50:
 491 0048 4FF0FF34 		mov	r4, #-1
 492              	.LVL53:
 493 004c 00E0     		b	.L45
 494              	.LVL54:
 495              	.L51:
 369:Generated_Source\PSoC5/EEPROM.c ****                 {
 370:Generated_Source\PSoC5/EEPROM.c ****                     status = CYRET_SUCCESS;
 496              		.loc 1 370 0
 497 004e 0024     		movs	r4, #0
 498              	.LVL55:
 499              	.L45:
 371:Generated_Source\PSoC5/EEPROM.c ****                 }
 372:Generated_Source\PSoC5/EEPROM.c **** 
 373:Generated_Source\PSoC5/EEPROM.c ****                 /* Command to erase and program the row. */
 374:Generated_Source\PSoC5/EEPROM.c ****                 if(status == CYRET_SUCCESS)
 500              		.loc 1 374 0
 501 0050 E4B9     		cbnz	r4, .L52
 375:Generated_Source\PSoC5/EEPROM.c ****                 {
 376:Generated_Source\PSoC5/EEPROM.c ****                     if(CySpcWriteRow(CY_SPC_FIRST_EE_ARRAYID, (uint16)rowNumber, dieTemperature[0u]
 502              		.loc 1 376 0
 503 0052 174A     		ldr	r2, .L56+4
 504 0054 5378     		ldrb	r3, [r2, #1]	@ zero_extendqisi2
 505 0056 1278     		ldrb	r2, [r2]	@ zero_extendqisi2
 506 0058 2946     		mov	r1, r5
 507 005a 4020     		movs	r0, #64
 508 005c FFF7FEFF 		bl	CySpcWriteRow
 509              	.LVL56:
 510 0060 0728     		cmp	r0, #7
 511 0062 16D1     		bne	.L53
 512              	.L46:
 377:Generated_Source\PSoC5/EEPROM.c ****                     dieTemperature[1u]) == CYRET_STARTED)
 378:Generated_Source\PSoC5/EEPROM.c ****                     {
 379:Generated_Source\PSoC5/EEPROM.c ****                         /* Plan for failure */
 380:Generated_Source\PSoC5/EEPROM.c ****                         status = CYRET_UNKNOWN;
 381:Generated_Source\PSoC5/EEPROM.c **** 
 382:Generated_Source\PSoC5/EEPROM.c ****                         while(CY_SPC_BUSY)
 513              		.loc 1 382 0 discriminator 1
 514 0064 114B     		ldr	r3, .L56
 515 0066 1B78     		ldrb	r3, [r3]	@ zero_extendqisi2
 516 0068 13F0020F 		tst	r3, #2
 517 006c FAD0     		beq	.L46
 383:Generated_Source\PSoC5/EEPROM.c ****                         {
 384:Generated_Source\PSoC5/EEPROM.c ****                             /* Wait until SPC becomes idle */
ARM GAS  C:\Users\Shaunak\AppData\Local\Temp\ccyISjfe.s 			page 17


 385:Generated_Source\PSoC5/EEPROM.c ****                         }
 386:Generated_Source\PSoC5/EEPROM.c **** 
 387:Generated_Source\PSoC5/EEPROM.c ****                         /* SPC is idle now */
 388:Generated_Source\PSoC5/EEPROM.c ****                         if(CY_SPC_STATUS_SUCCESS == CY_SPC_READ_STATUS)
 518              		.loc 1 388 0
 519 006e 0F4B     		ldr	r3, .L56
 520 0070 1B78     		ldrb	r3, [r3]	@ zero_extendqisi2
 521 0072 13F0020F 		tst	r3, #2
 522 0076 0FD0     		beq	.L54
 523              		.loc 1 388 0 is_stmt 0 discriminator 1
 524 0078 0C4B     		ldr	r3, .L56
 525 007a 1B78     		ldrb	r3, [r3]	@ zero_extendqisi2
 526 007c 9B08     		lsrs	r3, r3, #2
 527 007e 0DD0     		beq	.L43
 380:Generated_Source\PSoC5/EEPROM.c **** 
 528              		.loc 1 380 0 is_stmt 1
 529 0080 4FF0FF34 		mov	r4, #-1
 530              	.LVL57:
 531 0084 0AE0     		b	.L43
 532              	.LVL58:
 533              	.L49:
 357:Generated_Source\PSoC5/EEPROM.c **** 
 534              		.loc 1 357 0
 535 0086 4FF0FF34 		mov	r4, #-1
 536              	.LVL59:
 537 008a 07E0     		b	.L43
 538              	.LVL60:
 539              	.L52:
 389:Generated_Source\PSoC5/EEPROM.c ****                         {
 390:Generated_Source\PSoC5/EEPROM.c ****                             status = CYRET_SUCCESS;
 391:Generated_Source\PSoC5/EEPROM.c ****                         }
 392:Generated_Source\PSoC5/EEPROM.c ****                     }
 393:Generated_Source\PSoC5/EEPROM.c ****                     else
 394:Generated_Source\PSoC5/EEPROM.c ****                     {
 395:Generated_Source\PSoC5/EEPROM.c ****                         status = CYRET_UNKNOWN;
 396:Generated_Source\PSoC5/EEPROM.c ****                     }
 397:Generated_Source\PSoC5/EEPROM.c ****                 }
 398:Generated_Source\PSoC5/EEPROM.c ****                 else
 399:Generated_Source\PSoC5/EEPROM.c ****                 {
 400:Generated_Source\PSoC5/EEPROM.c ****                     status = CYRET_UNKNOWN;
 540              		.loc 1 400 0
 541 008c 4FF0FF34 		mov	r4, #-1
 542              	.LVL61:
 543 0090 04E0     		b	.L43
 544              	.LVL62:
 545              	.L53:
 395:Generated_Source\PSoC5/EEPROM.c ****                     }
 546              		.loc 1 395 0
 547 0092 4FF0FF34 		mov	r4, #-1
 548              	.LVL63:
 549 0096 01E0     		b	.L43
 550              	.LVL64:
 551              	.L54:
 380:Generated_Source\PSoC5/EEPROM.c **** 
 552              		.loc 1 380 0
 553 0098 4FF0FF34 		mov	r4, #-1
 554              	.LVL65:
ARM GAS  C:\Users\Shaunak\AppData\Local\Temp\ccyISjfe.s 			page 18


 555              	.L43:
 401:Generated_Source\PSoC5/EEPROM.c ****                 }
 402:Generated_Source\PSoC5/EEPROM.c ****             }
 403:Generated_Source\PSoC5/EEPROM.c **** 
 404:Generated_Source\PSoC5/EEPROM.c ****             /* Unlock SPC so that someone else can use it. */
 405:Generated_Source\PSoC5/EEPROM.c ****             CySpcUnlock();
 556              		.loc 1 405 0
 557 009c FFF7FEFF 		bl	CySpcUnlock
 558              	.LVL66:
 559 00a0 02E0     		b	.L42
 560              	.LVL67:
 561              	.L47:
 406:Generated_Source\PSoC5/EEPROM.c ****         }
 407:Generated_Source\PSoC5/EEPROM.c ****         else
 408:Generated_Source\PSoC5/EEPROM.c ****         {
 409:Generated_Source\PSoC5/EEPROM.c ****             status = CYRET_LOCKED;
 410:Generated_Source\PSoC5/EEPROM.c ****         }
 411:Generated_Source\PSoC5/EEPROM.c ****     }
 412:Generated_Source\PSoC5/EEPROM.c ****     else
 413:Generated_Source\PSoC5/EEPROM.c ****     {
 414:Generated_Source\PSoC5/EEPROM.c ****         status = CYRET_BAD_PARAM;
 562              		.loc 1 414 0
 563 00a2 0124     		movs	r4, #1
 564              	.LVL68:
 565 00a4 00E0     		b	.L42
 566              	.LVL69:
 567              	.L48:
 409:Generated_Source\PSoC5/EEPROM.c ****         }
 568              		.loc 1 409 0
 569 00a6 0424     		movs	r4, #4
 570              	.LVL70:
 571              	.L42:
 415:Generated_Source\PSoC5/EEPROM.c ****     }
 416:Generated_Source\PSoC5/EEPROM.c **** 
 417:Generated_Source\PSoC5/EEPROM.c ****     return(status);
 418:Generated_Source\PSoC5/EEPROM.c **** }
 572              		.loc 1 418 0
 573 00a8 2046     		mov	r0, r4
 574 00aa 38BD     		pop	{r3, r4, r5, pc}
 575              	.LVL71:
 576              	.L57:
 577              		.align	2
 578              	.L56:
 579 00ac 22470040 		.word	1073760034
 580 00b0 00000000 		.word	dieTemperature
 581              		.cfi_endproc
 582              	.LFE7:
 583              		.size	EEPROM_Write, .-EEPROM_Write
 584              		.section	.text.EEPROM_StartWrite,"ax",%progbits
 585              		.align	2
 586              		.global	EEPROM_StartWrite
 587              		.thumb
 588              		.thumb_func
 589              		.type	EEPROM_StartWrite, %function
 590              	EEPROM_StartWrite:
 591              	.LFB8:
 419:Generated_Source\PSoC5/EEPROM.c **** 
ARM GAS  C:\Users\Shaunak\AppData\Local\Temp\ccyISjfe.s 			page 19


 420:Generated_Source\PSoC5/EEPROM.c **** 
 421:Generated_Source\PSoC5/EEPROM.c **** /*******************************************************************************
 422:Generated_Source\PSoC5/EEPROM.c **** * Function Name: EEPROM_StartWrite
 423:Generated_Source\PSoC5/EEPROM.c **** ********************************************************************************
 424:Generated_Source\PSoC5/EEPROM.c **** *
 425:Generated_Source\PSoC5/EEPROM.c **** * Summary:
 426:Generated_Source\PSoC5/EEPROM.c **** *  Starts a write of a row (16 bytes) of data to the EEPROM.
 427:Generated_Source\PSoC5/EEPROM.c **** *  This function does not block. The function returns once the SPC has begun
 428:Generated_Source\PSoC5/EEPROM.c **** *  writing the data. This function must be used in combination with
 429:Generated_Source\PSoC5/EEPROM.c **** *  EEPROM_Query(). EEPROM_Query() must be called
 430:Generated_Source\PSoC5/EEPROM.c **** *  until it returns a status other than CYRET_STARTED. That indicates that the
 431:Generated_Source\PSoC5/EEPROM.c **** *  write has completed. Until EEPROM_Query() detects that
 432:Generated_Source\PSoC5/EEPROM.c **** *  the write is complete, the SPC is marked as locked to prevent another
 433:Generated_Source\PSoC5/EEPROM.c **** *  SPC operation from being performed. For a reliable write procedure to occur
 434:Generated_Source\PSoC5/EEPROM.c **** *  you should call EEPROM_UpdateTemperature() API if the temperature
 435:Generated_Source\PSoC5/EEPROM.c **** *  of the silicon has changed for more than 10C since component was started.
 436:Generated_Source\PSoC5/EEPROM.c **** *
 437:Generated_Source\PSoC5/EEPROM.c **** * Parameters:
 438:Generated_Source\PSoC5/EEPROM.c **** *  rowData:    The address of the data to write to the EEPROM.
 439:Generated_Source\PSoC5/EEPROM.c **** *  rowNumber:  The row number to write.
 440:Generated_Source\PSoC5/EEPROM.c **** *
 441:Generated_Source\PSoC5/EEPROM.c **** * Return:
 442:Generated_Source\PSoC5/EEPROM.c **** *  CYRET_STARTED, if the SPC command to write was successfully started.
 443:Generated_Source\PSoC5/EEPROM.c **** *  CYRET_BAD_PARAM, if the parameter rowNumber is out of range.
 444:Generated_Source\PSoC5/EEPROM.c **** *  CYRET_LOCKED, if the SPC is being used.
 445:Generated_Source\PSoC5/EEPROM.c **** *  CYRET_UNKNOWN, if there was an SPC error.
 446:Generated_Source\PSoC5/EEPROM.c **** *
 447:Generated_Source\PSoC5/EEPROM.c **** * Side effects:
 448:Generated_Source\PSoC5/EEPROM.c **** *  After calling this API, the device should not be powered down, reset or switched
 449:Generated_Source\PSoC5/EEPROM.c **** *  to low power modes until EEPROM operation is complete. 
 450:Generated_Source\PSoC5/EEPROM.c **** *  Ignoring this recommendation may lead to data corruption or silicon
 451:Generated_Source\PSoC5/EEPROM.c **** *  unexpected behavior.
 452:Generated_Source\PSoC5/EEPROM.c **** *
 453:Generated_Source\PSoC5/EEPROM.c **** *******************************************************************************/
 454:Generated_Source\PSoC5/EEPROM.c **** cystatus EEPROM_StartWrite(const uint8 * rowData, uint8 rowNumber) \
 455:Generated_Source\PSoC5/EEPROM.c **** 
 456:Generated_Source\PSoC5/EEPROM.c **** {
 592              		.loc 1 456 0
 593              		.cfi_startproc
 594              		@ args = 0, pretend = 0, frame = 0
 595              		@ frame_needed = 0, uses_anonymous_args = 0
 596              	.LVL72:
 597 0000 38B5     		push	{r3, r4, r5, lr}
 598              		.cfi_def_cfa_offset 16
 599              		.cfi_offset 3, -16
 600              		.cfi_offset 4, -12
 601              		.cfi_offset 5, -8
 602              		.cfi_offset 14, -4
 603 0002 0546     		mov	r5, r0
 604 0004 0C46     		mov	r4, r1
 457:Generated_Source\PSoC5/EEPROM.c ****     cystatus status;
 458:Generated_Source\PSoC5/EEPROM.c ****     
 459:Generated_Source\PSoC5/EEPROM.c ****     CySpcStart();
 605              		.loc 1 459 0
 606 0006 FFF7FEFF 		bl	CySpcStart
 607              	.LVL73:
 460:Generated_Source\PSoC5/EEPROM.c **** 
ARM GAS  C:\Users\Shaunak\AppData\Local\Temp\ccyISjfe.s 			page 20


 461:Generated_Source\PSoC5/EEPROM.c ****     if(rowNumber < (uint8) CY_EEPROM_NUMBER_ROWS)
 608              		.loc 1 461 0
 609 000a 14F0800F 		tst	r4, #128
 610 000e 29D1     		bne	.L62
 462:Generated_Source\PSoC5/EEPROM.c ****     {
 463:Generated_Source\PSoC5/EEPROM.c ****         /* See if we can get SPC. */
 464:Generated_Source\PSoC5/EEPROM.c ****         if(CySpcLock() == CYRET_SUCCESS)
 611              		.loc 1 464 0
 612 0010 FFF7FEFF 		bl	CySpcLock
 613              	.LVL74:
 614 0014 40BB     		cbnz	r0, .L63
 615              	.LVL75:
 465:Generated_Source\PSoC5/EEPROM.c ****         {
 466:Generated_Source\PSoC5/EEPROM.c ****             /* Plan for failure */
 467:Generated_Source\PSoC5/EEPROM.c ****             status = CYRET_UNKNOWN;
 468:Generated_Source\PSoC5/EEPROM.c **** 
 469:Generated_Source\PSoC5/EEPROM.c ****             /* Command to load a row of data */
 470:Generated_Source\PSoC5/EEPROM.c ****             if(CySpcLoadRow(CY_SPC_FIRST_EE_ARRAYID, rowData, CYDEV_EEPROM_ROW_SIZE) == CYRET_START
 616              		.loc 1 470 0
 617 0016 1022     		movs	r2, #16
 618 0018 2946     		mov	r1, r5
 619 001a 4020     		movs	r0, #64
 620 001c FFF7FEFF 		bl	CySpcLoadRow
 621              	.LVL76:
 622 0020 0728     		cmp	r0, #7
 623 0022 23D1     		bne	.L64
 624              	.L60:
 471:Generated_Source\PSoC5/EEPROM.c ****             {
 472:Generated_Source\PSoC5/EEPROM.c ****                 while(CY_SPC_BUSY)
 625              		.loc 1 472 0 discriminator 1
 626 0024 164B     		ldr	r3, .L70
 627 0026 1B78     		ldrb	r3, [r3]	@ zero_extendqisi2
 628 0028 13F0020F 		tst	r3, #2
 629 002c FAD0     		beq	.L60
 473:Generated_Source\PSoC5/EEPROM.c ****                 {
 474:Generated_Source\PSoC5/EEPROM.c ****                     /* Wait until SPC becomes idle */
 475:Generated_Source\PSoC5/EEPROM.c ****                 }
 476:Generated_Source\PSoC5/EEPROM.c **** 
 477:Generated_Source\PSoC5/EEPROM.c ****                 /* SPC is idle now */
 478:Generated_Source\PSoC5/EEPROM.c ****                 if(CY_SPC_STATUS_SUCCESS == CY_SPC_READ_STATUS)
 630              		.loc 1 478 0
 631 002e 144B     		ldr	r3, .L70
 632 0030 1B78     		ldrb	r3, [r3]	@ zero_extendqisi2
 633 0032 13F0020F 		tst	r3, #2
 634 0036 06D0     		beq	.L65
 635              		.loc 1 478 0 is_stmt 0 discriminator 1
 636 0038 114B     		ldr	r3, .L70
 637 003a 1B78     		ldrb	r3, [r3]	@ zero_extendqisi2
 638 003c 9B08     		lsrs	r3, r3, #2
 639 003e 05D0     		beq	.L66
 467:Generated_Source\PSoC5/EEPROM.c **** 
 640              		.loc 1 467 0 is_stmt 1
 641 0040 4FF0FF33 		mov	r3, #-1
 642 0044 03E0     		b	.L61
 643              	.L65:
 644 0046 4FF0FF33 		mov	r3, #-1
 645 004a 00E0     		b	.L61
ARM GAS  C:\Users\Shaunak\AppData\Local\Temp\ccyISjfe.s 			page 21


 646              	.L66:
 479:Generated_Source\PSoC5/EEPROM.c ****                 {
 480:Generated_Source\PSoC5/EEPROM.c ****                     status = CYRET_SUCCESS;
 647              		.loc 1 480 0
 648 004c 0023     		movs	r3, #0
 649              	.L61:
 650              	.LVL77:
 481:Generated_Source\PSoC5/EEPROM.c ****                 }
 482:Generated_Source\PSoC5/EEPROM.c **** 
 483:Generated_Source\PSoC5/EEPROM.c ****                 /* Command to erase and program the row. */
 484:Generated_Source\PSoC5/EEPROM.c ****                 if(status == CYRET_SUCCESS)
 651              		.loc 1 484 0
 652 004e 83B9     		cbnz	r3, .L67
 485:Generated_Source\PSoC5/EEPROM.c ****                 {
 486:Generated_Source\PSoC5/EEPROM.c ****                     if(CySpcWriteRow(CY_SPC_FIRST_EE_ARRAYID, (uint16)rowNumber, dieTemperature[0u]
 653              		.loc 1 486 0
 654 0050 0C4A     		ldr	r2, .L70+4
 655 0052 5378     		ldrb	r3, [r2, #1]	@ zero_extendqisi2
 656              	.LVL78:
 657 0054 1278     		ldrb	r2, [r2]	@ zero_extendqisi2
 658 0056 2146     		mov	r1, r4
 659 0058 4020     		movs	r0, #64
 660 005a FFF7FEFF 		bl	CySpcWriteRow
 661              	.LVL79:
 662 005e 0728     		cmp	r0, #7
 663 0060 0AD1     		bne	.L68
 664 0062 38BD     		pop	{r3, r4, r5, pc}
 665              	.LVL80:
 666              	.L62:
 487:Generated_Source\PSoC5/EEPROM.c ****                     dieTemperature[1u]) == CYRET_STARTED)
 488:Generated_Source\PSoC5/EEPROM.c ****                     {
 489:Generated_Source\PSoC5/EEPROM.c ****                         status = CYRET_STARTED;
 490:Generated_Source\PSoC5/EEPROM.c ****                     }
 491:Generated_Source\PSoC5/EEPROM.c ****                     else
 492:Generated_Source\PSoC5/EEPROM.c ****                     {
 493:Generated_Source\PSoC5/EEPROM.c ****                         status = CYRET_UNKNOWN;
 494:Generated_Source\PSoC5/EEPROM.c ****                     }
 495:Generated_Source\PSoC5/EEPROM.c ****                 }
 496:Generated_Source\PSoC5/EEPROM.c ****                 else
 497:Generated_Source\PSoC5/EEPROM.c ****                 {
 498:Generated_Source\PSoC5/EEPROM.c ****                     status = CYRET_UNKNOWN;
 499:Generated_Source\PSoC5/EEPROM.c ****                 }
 500:Generated_Source\PSoC5/EEPROM.c ****             }
 501:Generated_Source\PSoC5/EEPROM.c ****         }
 502:Generated_Source\PSoC5/EEPROM.c ****         else
 503:Generated_Source\PSoC5/EEPROM.c ****         {
 504:Generated_Source\PSoC5/EEPROM.c ****             status = CYRET_LOCKED;
 505:Generated_Source\PSoC5/EEPROM.c ****         }
 506:Generated_Source\PSoC5/EEPROM.c ****     }
 507:Generated_Source\PSoC5/EEPROM.c ****     else
 508:Generated_Source\PSoC5/EEPROM.c ****     {
 509:Generated_Source\PSoC5/EEPROM.c ****         status = CYRET_BAD_PARAM;
 667              		.loc 1 509 0
 668 0064 0120     		movs	r0, #1
 669 0066 38BD     		pop	{r3, r4, r5, pc}
 670              	.LVL81:
 671              	.L63:
ARM GAS  C:\Users\Shaunak\AppData\Local\Temp\ccyISjfe.s 			page 22


 504:Generated_Source\PSoC5/EEPROM.c ****         }
 672              		.loc 1 504 0
 673 0068 0420     		movs	r0, #4
 674 006a 38BD     		pop	{r3, r4, r5, pc}
 675              	.LVL82:
 676              	.L64:
 467:Generated_Source\PSoC5/EEPROM.c **** 
 677              		.loc 1 467 0
 678 006c 4FF0FF30 		mov	r0, #-1
 679 0070 38BD     		pop	{r3, r4, r5, pc}
 680              	.LVL83:
 681              	.L67:
 498:Generated_Source\PSoC5/EEPROM.c ****                 }
 682              		.loc 1 498 0
 683 0072 4FF0FF30 		mov	r0, #-1
 684 0076 38BD     		pop	{r3, r4, r5, pc}
 685              	.LVL84:
 686              	.L68:
 493:Generated_Source\PSoC5/EEPROM.c ****                     }
 687              		.loc 1 493 0
 688 0078 4FF0FF30 		mov	r0, #-1
 689              	.LVL85:
 510:Generated_Source\PSoC5/EEPROM.c ****     }
 511:Generated_Source\PSoC5/EEPROM.c **** 
 512:Generated_Source\PSoC5/EEPROM.c ****     return(status);
 513:Generated_Source\PSoC5/EEPROM.c **** }
 690              		.loc 1 513 0
 691 007c 38BD     		pop	{r3, r4, r5, pc}
 692              	.LVL86:
 693              	.L71:
 694 007e 00BF     		.align	2
 695              	.L70:
 696 0080 22470040 		.word	1073760034
 697 0084 00000000 		.word	dieTemperature
 698              		.cfi_endproc
 699              	.LFE8:
 700              		.size	EEPROM_StartWrite, .-EEPROM_StartWrite
 701              		.section	.text.EEPROM_StartErase,"ax",%progbits
 702              		.align	2
 703              		.global	EEPROM_StartErase
 704              		.thumb
 705              		.thumb_func
 706              		.type	EEPROM_StartErase, %function
 707              	EEPROM_StartErase:
 708              	.LFB9:
 514:Generated_Source\PSoC5/EEPROM.c **** 
 515:Generated_Source\PSoC5/EEPROM.c **** 
 516:Generated_Source\PSoC5/EEPROM.c **** /*******************************************************************************
 517:Generated_Source\PSoC5/EEPROM.c **** * Function Name: EEPROM_StartErase
 518:Generated_Source\PSoC5/EEPROM.c **** ********************************************************************************
 519:Generated_Source\PSoC5/EEPROM.c **** *
 520:Generated_Source\PSoC5/EEPROM.c **** * Summary:
 521:Generated_Source\PSoC5/EEPROM.c **** *  Starts the EEPROM sector erase. This function does not block.
 522:Generated_Source\PSoC5/EEPROM.c **** *  The function returns once the SPC has begun writing the data. This function
 523:Generated_Source\PSoC5/EEPROM.c **** *  must be used in combination with EEPROM_Query().
 524:Generated_Source\PSoC5/EEPROM.c **** *  EEPROM_Query() must be called until it returns a status
 525:Generated_Source\PSoC5/EEPROM.c **** *  other than CYRET_STARTED. That indicates the erase has been completed.
ARM GAS  C:\Users\Shaunak\AppData\Local\Temp\ccyISjfe.s 			page 23


 526:Generated_Source\PSoC5/EEPROM.c **** *  Until EEPROM_Query() detects that the erase is
 527:Generated_Source\PSoC5/EEPROM.c **** *  complete, the SPC is marked as locked to prevent another SPC operation
 528:Generated_Source\PSoC5/EEPROM.c **** *  from being performed.
 529:Generated_Source\PSoC5/EEPROM.c **** *
 530:Generated_Source\PSoC5/EEPROM.c **** * Parameters:
 531:Generated_Source\PSoC5/EEPROM.c **** *  sectorNumber:  The sector number to erase.
 532:Generated_Source\PSoC5/EEPROM.c **** *
 533:Generated_Source\PSoC5/EEPROM.c **** * Return:
 534:Generated_Source\PSoC5/EEPROM.c **** *  CYRET_STARTED, if the SPC command to erase was successfully started.
 535:Generated_Source\PSoC5/EEPROM.c **** *  CYRET_BAD_PARAM, if the parameter sectorNumber is out of range.
 536:Generated_Source\PSoC5/EEPROM.c **** *  CYRET_LOCKED, if the SPC is being used.
 537:Generated_Source\PSoC5/EEPROM.c **** *  CYRET_UNKNOWN, if there was an SPC error.
 538:Generated_Source\PSoC5/EEPROM.c **** *
 539:Generated_Source\PSoC5/EEPROM.c **** * Side effects:
 540:Generated_Source\PSoC5/EEPROM.c **** *  After calling this API, the device should not be powered down, reset or switched
 541:Generated_Source\PSoC5/EEPROM.c **** *  to low power modes until EEPROM operation is complete.
 542:Generated_Source\PSoC5/EEPROM.c **** *  Ignoring this recommendation may lead to data corruption or silicon
 543:Generated_Source\PSoC5/EEPROM.c **** *  unexpected behavior.
 544:Generated_Source\PSoC5/EEPROM.c **** *
 545:Generated_Source\PSoC5/EEPROM.c **** *******************************************************************************/
 546:Generated_Source\PSoC5/EEPROM.c **** cystatus EEPROM_StartErase(uint8 sectorNumber) 
 547:Generated_Source\PSoC5/EEPROM.c **** {
 709              		.loc 1 547 0
 710              		.cfi_startproc
 711              		@ args = 0, pretend = 0, frame = 0
 712              		@ frame_needed = 0, uses_anonymous_args = 0
 713              	.LVL87:
 714 0000 10B5     		push	{r4, lr}
 715              		.cfi_def_cfa_offset 8
 716              		.cfi_offset 4, -8
 717              		.cfi_offset 14, -4
 718 0002 0446     		mov	r4, r0
 548:Generated_Source\PSoC5/EEPROM.c ****     cystatus status;
 549:Generated_Source\PSoC5/EEPROM.c ****     
 550:Generated_Source\PSoC5/EEPROM.c ****     CySpcStart();
 719              		.loc 1 550 0
 720 0004 FFF7FEFF 		bl	CySpcStart
 721              	.LVL88:
 551:Generated_Source\PSoC5/EEPROM.c **** 
 552:Generated_Source\PSoC5/EEPROM.c ****     if(sectorNumber < (uint8) CY_EEPROM_NUMBER_ARRAYS)
 722              		.loc 1 552 0
 723 0008 5CB9     		cbnz	r4, .L74
 553:Generated_Source\PSoC5/EEPROM.c ****     {
 554:Generated_Source\PSoC5/EEPROM.c ****         /* See if we can get SPC. */
 555:Generated_Source\PSoC5/EEPROM.c ****         if(CySpcLock() == CYRET_SUCCESS)
 724              		.loc 1 555 0
 725 000a FFF7FEFF 		bl	CySpcLock
 726              	.LVL89:
 727 000e 50B9     		cbnz	r0, .L75
 728              	.LVL90:
 556:Generated_Source\PSoC5/EEPROM.c ****         {
 557:Generated_Source\PSoC5/EEPROM.c ****             /* Plan for failure */
 558:Generated_Source\PSoC5/EEPROM.c ****             status = CYRET_UNKNOWN;
 559:Generated_Source\PSoC5/EEPROM.c **** 
 560:Generated_Source\PSoC5/EEPROM.c ****             /* Command to load a row of data */
 561:Generated_Source\PSoC5/EEPROM.c ****             if(CySpcEraseSector(CY_SPC_FIRST_EE_ARRAYID, sectorNumber) == CYRET_STARTED)
 729              		.loc 1 561 0
ARM GAS  C:\Users\Shaunak\AppData\Local\Temp\ccyISjfe.s 			page 24


 730 0010 2146     		mov	r1, r4
 731 0012 4020     		movs	r0, #64
 732 0014 FFF7FEFF 		bl	CySpcEraseSector
 733              	.LVL91:
 734 0018 0728     		cmp	r0, #7
 735 001a 06D0     		beq	.L76
 558:Generated_Source\PSoC5/EEPROM.c **** 
 736              		.loc 1 558 0
 737 001c 4FF0FF30 		mov	r0, #-1
 738 0020 10BD     		pop	{r4, pc}
 739              	.LVL92:
 740              	.L74:
 562:Generated_Source\PSoC5/EEPROM.c ****             {
 563:Generated_Source\PSoC5/EEPROM.c ****                 status = CYRET_SUCCESS;
 564:Generated_Source\PSoC5/EEPROM.c ****             }
 565:Generated_Source\PSoC5/EEPROM.c ****         }
 566:Generated_Source\PSoC5/EEPROM.c ****         else
 567:Generated_Source\PSoC5/EEPROM.c ****         {
 568:Generated_Source\PSoC5/EEPROM.c ****             status = CYRET_LOCKED;
 569:Generated_Source\PSoC5/EEPROM.c ****         }
 570:Generated_Source\PSoC5/EEPROM.c ****     }
 571:Generated_Source\PSoC5/EEPROM.c ****     else
 572:Generated_Source\PSoC5/EEPROM.c ****     {
 573:Generated_Source\PSoC5/EEPROM.c ****         status = CYRET_BAD_PARAM;
 741              		.loc 1 573 0
 742 0022 0120     		movs	r0, #1
 743 0024 10BD     		pop	{r4, pc}
 744              	.L75:
 568:Generated_Source\PSoC5/EEPROM.c ****         }
 745              		.loc 1 568 0
 746 0026 0420     		movs	r0, #4
 747 0028 10BD     		pop	{r4, pc}
 748              	.LVL93:
 749              	.L76:
 563:Generated_Source\PSoC5/EEPROM.c ****             }
 750              		.loc 1 563 0
 751 002a 0020     		movs	r0, #0
 752              	.LVL94:
 574:Generated_Source\PSoC5/EEPROM.c ****     }
 575:Generated_Source\PSoC5/EEPROM.c **** 
 576:Generated_Source\PSoC5/EEPROM.c ****     return(status);
 577:Generated_Source\PSoC5/EEPROM.c **** }
 753              		.loc 1 577 0
 754 002c 10BD     		pop	{r4, pc}
 755              		.cfi_endproc
 756              	.LFE9:
 757              		.size	EEPROM_StartErase, .-EEPROM_StartErase
 758 002e 00BF     		.section	.text.EEPROM_Query,"ax",%progbits
 759              		.align	2
 760              		.global	EEPROM_Query
 761              		.thumb
 762              		.thumb_func
 763              		.type	EEPROM_Query, %function
 764              	EEPROM_Query:
 765              	.LFB10:
 578:Generated_Source\PSoC5/EEPROM.c **** 
 579:Generated_Source\PSoC5/EEPROM.c **** 
ARM GAS  C:\Users\Shaunak\AppData\Local\Temp\ccyISjfe.s 			page 25


 580:Generated_Source\PSoC5/EEPROM.c **** /*******************************************************************************
 581:Generated_Source\PSoC5/EEPROM.c **** * Function Name: EEPROM_Query
 582:Generated_Source\PSoC5/EEPROM.c **** ********************************************************************************
 583:Generated_Source\PSoC5/EEPROM.c **** *
 584:Generated_Source\PSoC5/EEPROM.c **** * Summary:
 585:Generated_Source\PSoC5/EEPROM.c **** *  Checks the status of an earlier call to EEPROM_StartWrite() or
 586:Generated_Source\PSoC5/EEPROM.c **** *  EEPROM_StartErase().
 587:Generated_Source\PSoC5/EEPROM.c **** *  This function must be called until it returns a value other than
 588:Generated_Source\PSoC5/EEPROM.c **** *  CYRET_STARTED. Once that occurs, the write or erase has been completed and
 589:Generated_Source\PSoC5/EEPROM.c **** *  the SPC is unlocked.
 590:Generated_Source\PSoC5/EEPROM.c **** *
 591:Generated_Source\PSoC5/EEPROM.c **** * Parameters:
 592:Generated_Source\PSoC5/EEPROM.c **** *  None
 593:Generated_Source\PSoC5/EEPROM.c **** *
 594:Generated_Source\PSoC5/EEPROM.c **** * Return:
 595:Generated_Source\PSoC5/EEPROM.c **** *  CYRET_STARTED, if the SPC command is still processing.
 596:Generated_Source\PSoC5/EEPROM.c **** *  CYRET_SUCCESS, if the operation was completed successfully.
 597:Generated_Source\PSoC5/EEPROM.c **** *  CYRET_UNKNOWN, if there was an SPC error.
 598:Generated_Source\PSoC5/EEPROM.c **** *
 599:Generated_Source\PSoC5/EEPROM.c **** *******************************************************************************/
 600:Generated_Source\PSoC5/EEPROM.c **** cystatus EEPROM_Query(void) 
 601:Generated_Source\PSoC5/EEPROM.c **** {
 766              		.loc 1 601 0
 767              		.cfi_startproc
 768              		@ args = 0, pretend = 0, frame = 0
 769              		@ frame_needed = 0, uses_anonymous_args = 0
 770 0000 10B5     		push	{r4, lr}
 771              		.cfi_def_cfa_offset 8
 772              		.cfi_offset 4, -8
 773              		.cfi_offset 14, -4
 602:Generated_Source\PSoC5/EEPROM.c ****     cystatus status;
 603:Generated_Source\PSoC5/EEPROM.c ****     
 604:Generated_Source\PSoC5/EEPROM.c ****     CySpcStart();
 774              		.loc 1 604 0
 775 0002 FFF7FEFF 		bl	CySpcStart
 776              	.LVL95:
 605:Generated_Source\PSoC5/EEPROM.c **** 
 606:Generated_Source\PSoC5/EEPROM.c ****     /* Check if SPC is idle */
 607:Generated_Source\PSoC5/EEPROM.c ****     if(CY_SPC_IDLE)
 777              		.loc 1 607 0
 778 0006 0D4B     		ldr	r3, .L85
 779 0008 1B78     		ldrb	r3, [r3]	@ zero_extendqisi2
 780 000a 13F0020F 		tst	r3, #2
 781 000e 12D0     		beq	.L81
 608:Generated_Source\PSoC5/EEPROM.c ****     {
 609:Generated_Source\PSoC5/EEPROM.c ****         /* SPC is idle now */
 610:Generated_Source\PSoC5/EEPROM.c ****         if(CY_SPC_STATUS_SUCCESS == CY_SPC_READ_STATUS)
 782              		.loc 1 610 0
 783 0010 0A4B     		ldr	r3, .L85
 784 0012 1B78     		ldrb	r3, [r3]	@ zero_extendqisi2
 785 0014 13F0020F 		tst	r3, #2
 786 0018 06D0     		beq	.L82
 787              		.loc 1 610 0 is_stmt 0 discriminator 1
 788 001a 084B     		ldr	r3, .L85
 789 001c 1B78     		ldrb	r3, [r3]	@ zero_extendqisi2
 790 001e 9B08     		lsrs	r3, r3, #2
 791 0020 05D0     		beq	.L83
ARM GAS  C:\Users\Shaunak\AppData\Local\Temp\ccyISjfe.s 			page 26


 611:Generated_Source\PSoC5/EEPROM.c ****         {
 612:Generated_Source\PSoC5/EEPROM.c ****             status = CYRET_SUCCESS;
 613:Generated_Source\PSoC5/EEPROM.c ****         }
 614:Generated_Source\PSoC5/EEPROM.c ****         else
 615:Generated_Source\PSoC5/EEPROM.c ****         {
 616:Generated_Source\PSoC5/EEPROM.c ****             status = CYRET_UNKNOWN;
 792              		.loc 1 616 0 is_stmt 1
 793 0022 4FF0FF34 		mov	r4, #-1
 794 0026 03E0     		b	.L80
 795              	.L82:
 796 0028 4FF0FF34 		mov	r4, #-1
 797 002c 00E0     		b	.L80
 798              	.L83:
 612:Generated_Source\PSoC5/EEPROM.c ****         }
 799              		.loc 1 612 0
 800 002e 0024     		movs	r4, #0
 801              	.L80:
 802              	.LVL96:
 617:Generated_Source\PSoC5/EEPROM.c ****         }
 618:Generated_Source\PSoC5/EEPROM.c **** 
 619:Generated_Source\PSoC5/EEPROM.c ****         /* Unlock SPC so that someone else can use it. */
 620:Generated_Source\PSoC5/EEPROM.c ****         CySpcUnlock();
 803              		.loc 1 620 0
 804 0030 FFF7FEFF 		bl	CySpcUnlock
 805              	.LVL97:
 806 0034 00E0     		b	.L79
 807              	.LVL98:
 808              	.L81:
 621:Generated_Source\PSoC5/EEPROM.c ****     }
 622:Generated_Source\PSoC5/EEPROM.c ****     else
 623:Generated_Source\PSoC5/EEPROM.c ****     {
 624:Generated_Source\PSoC5/EEPROM.c ****         status = CYRET_STARTED;
 809              		.loc 1 624 0
 810 0036 0724     		movs	r4, #7
 811              	.L79:
 812              	.LVL99:
 625:Generated_Source\PSoC5/EEPROM.c ****     }
 626:Generated_Source\PSoC5/EEPROM.c **** 
 627:Generated_Source\PSoC5/EEPROM.c ****     return(status);
 628:Generated_Source\PSoC5/EEPROM.c **** }
 813              		.loc 1 628 0
 814 0038 2046     		mov	r0, r4
 815 003a 10BD     		pop	{r4, pc}
 816              	.LVL100:
 817              	.L86:
 818              		.align	2
 819              	.L85:
 820 003c 22470040 		.word	1073760034
 821              		.cfi_endproc
 822              	.LFE10:
 823              		.size	EEPROM_Query, .-EEPROM_Query
 824              		.section	.text.EEPROM_ByteWritePos,"ax",%progbits
 825              		.align	2
 826              		.global	EEPROM_ByteWritePos
 827              		.thumb
 828              		.thumb_func
 829              		.type	EEPROM_ByteWritePos, %function
ARM GAS  C:\Users\Shaunak\AppData\Local\Temp\ccyISjfe.s 			page 27


 830              	EEPROM_ByteWritePos:
 831              	.LFB11:
 629:Generated_Source\PSoC5/EEPROM.c **** 
 630:Generated_Source\PSoC5/EEPROM.c **** 
 631:Generated_Source\PSoC5/EEPROM.c **** /*******************************************************************************
 632:Generated_Source\PSoC5/EEPROM.c **** * Function Name: EEPROM_ByteWritePos
 633:Generated_Source\PSoC5/EEPROM.c **** ********************************************************************************
 634:Generated_Source\PSoC5/EEPROM.c **** *
 635:Generated_Source\PSoC5/EEPROM.c **** * Summary:
 636:Generated_Source\PSoC5/EEPROM.c **** *  Writes a byte of data to the EEPROM. This is a blocking call. It will not
 637:Generated_Source\PSoC5/EEPROM.c **** *  return until the write operation succeeds or fails.
 638:Generated_Source\PSoC5/EEPROM.c **** *
 639:Generated_Source\PSoC5/EEPROM.c **** * Parameters:
 640:Generated_Source\PSoC5/EEPROM.c **** *  dataByte:   The byte of data to write to the EEPROM.
 641:Generated_Source\PSoC5/EEPROM.c **** *  rowNumber:  The EEPROM row number to program.
 642:Generated_Source\PSoC5/EEPROM.c **** *  byteNumber: The byte number within the row to program.
 643:Generated_Source\PSoC5/EEPROM.c **** *
 644:Generated_Source\PSoC5/EEPROM.c **** * Return:
 645:Generated_Source\PSoC5/EEPROM.c **** *  CYRET_SUCCESS, if the operation was successful.
 646:Generated_Source\PSoC5/EEPROM.c **** *  CYRET_BAD_PARAM, if the parameter rowNumber or byteNumber is out of range.
 647:Generated_Source\PSoC5/EEPROM.c **** *  CYRET_LOCKED, if the SPC is being used.
 648:Generated_Source\PSoC5/EEPROM.c **** *  CYRET_UNKNOWN, if there was an SPC error.
 649:Generated_Source\PSoC5/EEPROM.c **** *
 650:Generated_Source\PSoC5/EEPROM.c **** *******************************************************************************/
 651:Generated_Source\PSoC5/EEPROM.c **** cystatus EEPROM_ByteWritePos(uint8 dataByte, uint8 rowNumber, uint8 byteNumber) \
 652:Generated_Source\PSoC5/EEPROM.c **** 
 653:Generated_Source\PSoC5/EEPROM.c **** {
 832              		.loc 1 653 0
 833              		.cfi_startproc
 834              		@ args = 0, pretend = 0, frame = 8
 835              		@ frame_needed = 0, uses_anonymous_args = 0
 836              	.LVL101:
 837 0000 30B5     		push	{r4, r5, lr}
 838              		.cfi_def_cfa_offset 12
 839              		.cfi_offset 4, -12
 840              		.cfi_offset 5, -8
 841              		.cfi_offset 14, -4
 842 0002 83B0     		sub	sp, sp, #12
 843              		.cfi_def_cfa_offset 24
 844 0004 0D46     		mov	r5, r1
 845 0006 1446     		mov	r4, r2
 846 0008 8DF80700 		strb	r0, [sp, #7]
 654:Generated_Source\PSoC5/EEPROM.c ****     cystatus status;
 655:Generated_Source\PSoC5/EEPROM.c **** 
 656:Generated_Source\PSoC5/EEPROM.c ****     /* Start SPC */
 657:Generated_Source\PSoC5/EEPROM.c ****     CySpcStart();
 847              		.loc 1 657 0
 848 000c FFF7FEFF 		bl	CySpcStart
 849              	.LVL102:
 658:Generated_Source\PSoC5/EEPROM.c **** 
 659:Generated_Source\PSoC5/EEPROM.c ****     if((rowNumber < (uint8) CY_EEPROM_NUMBER_ROWS) && (byteNumber < (uint8) SIZEOF_EEPROM_ROW))
 850              		.loc 1 659 0
 851 0010 15F0800F 		tst	r5, #128
 852 0014 4CD1     		bne	.L93
 853              		.loc 1 659 0 is_stmt 0 discriminator 1
 854 0016 0F2C     		cmp	r4, #15
 855 0018 4CD8     		bhi	.L94
ARM GAS  C:\Users\Shaunak\AppData\Local\Temp\ccyISjfe.s 			page 28


 660:Generated_Source\PSoC5/EEPROM.c ****     {
 661:Generated_Source\PSoC5/EEPROM.c ****         /* See if we can get SPC. */
 662:Generated_Source\PSoC5/EEPROM.c ****         if(CySpcLock() == CYRET_SUCCESS)
 856              		.loc 1 662 0 is_stmt 1
 857 001a FFF7FEFF 		bl	CySpcLock
 858              	.LVL103:
 859 001e 0028     		cmp	r0, #0
 860 0020 4AD1     		bne	.L95
 861              	.LVL104:
 663:Generated_Source\PSoC5/EEPROM.c ****         {
 664:Generated_Source\PSoC5/EEPROM.c ****             /* Plan for failure */
 665:Generated_Source\PSoC5/EEPROM.c ****             status = CYRET_UNKNOWN;
 666:Generated_Source\PSoC5/EEPROM.c **** 
 667:Generated_Source\PSoC5/EEPROM.c ****             /* Command to load byte of data */
 668:Generated_Source\PSoC5/EEPROM.c ****             if(CySpcLoadMultiByte(CY_SPC_FIRST_EE_ARRAYID, (uint16)byteNumber, &dataByte,\
 862              		.loc 1 668 0
 863 0022 0123     		movs	r3, #1
 864 0024 0DF10702 		add	r2, sp, #7
 865              	.LVL105:
 866 0028 2146     		mov	r1, r4
 867 002a 4020     		movs	r0, #64
 868 002c FFF7FEFF 		bl	CySpcLoadMultiByte
 869              	.LVL106:
 870 0030 0728     		cmp	r0, #7
 871 0032 2FD1     		bne	.L96
 872              	.L90:
 669:Generated_Source\PSoC5/EEPROM.c ****                                                                 EEPROM_SPC_BYTE_WRITE_SIZE) == CYRE
 670:Generated_Source\PSoC5/EEPROM.c ****             {
 671:Generated_Source\PSoC5/EEPROM.c ****                 while(CY_SPC_BUSY)
 873              		.loc 1 671 0 discriminator 1
 874 0034 224B     		ldr	r3, .L103
 875 0036 1B78     		ldrb	r3, [r3]	@ zero_extendqisi2
 876 0038 13F0020F 		tst	r3, #2
 877 003c FAD0     		beq	.L90
 672:Generated_Source\PSoC5/EEPROM.c ****                 {
 673:Generated_Source\PSoC5/EEPROM.c ****                     /* Wait until SPC becomes idle */
 674:Generated_Source\PSoC5/EEPROM.c ****                 }
 675:Generated_Source\PSoC5/EEPROM.c **** 
 676:Generated_Source\PSoC5/EEPROM.c ****                 /* SPC is idle now */
 677:Generated_Source\PSoC5/EEPROM.c ****                 if(CY_SPC_STATUS_SUCCESS == CY_SPC_READ_STATUS)
 878              		.loc 1 677 0
 879 003e 204B     		ldr	r3, .L103
 880 0040 1B78     		ldrb	r3, [r3]	@ zero_extendqisi2
 881 0042 13F0020F 		tst	r3, #2
 882 0046 06D0     		beq	.L97
 883              		.loc 1 677 0 is_stmt 0 discriminator 1
 884 0048 1D4B     		ldr	r3, .L103
 885 004a 1B78     		ldrb	r3, [r3]	@ zero_extendqisi2
 886 004c 9B08     		lsrs	r3, r3, #2
 887 004e 05D0     		beq	.L98
 665:Generated_Source\PSoC5/EEPROM.c **** 
 888              		.loc 1 665 0 is_stmt 1
 889 0050 4FF0FF34 		mov	r4, #-1
 890 0054 03E0     		b	.L91
 891              	.L97:
 892 0056 4FF0FF34 		mov	r4, #-1
 893 005a 00E0     		b	.L91
ARM GAS  C:\Users\Shaunak\AppData\Local\Temp\ccyISjfe.s 			page 29


 894              	.L98:
 678:Generated_Source\PSoC5/EEPROM.c ****                 {
 679:Generated_Source\PSoC5/EEPROM.c ****                     status = CYRET_SUCCESS;
 895              		.loc 1 679 0
 896 005c 0024     		movs	r4, #0
 897              	.L91:
 898              	.LVL107:
 680:Generated_Source\PSoC5/EEPROM.c ****                 }
 681:Generated_Source\PSoC5/EEPROM.c **** 
 682:Generated_Source\PSoC5/EEPROM.c ****                 /* Command to erase and program the row. */
 683:Generated_Source\PSoC5/EEPROM.c ****                 if(status == CYRET_SUCCESS)
 899              		.loc 1 683 0
 900 005e E4B9     		cbnz	r4, .L99
 684:Generated_Source\PSoC5/EEPROM.c ****                 {
 685:Generated_Source\PSoC5/EEPROM.c ****                     if(CySpcWriteRow(CY_SPC_FIRST_EE_ARRAYID, (uint16)rowNumber, dieTemperature[0u]
 901              		.loc 1 685 0
 902 0060 184A     		ldr	r2, .L103+4
 903 0062 5378     		ldrb	r3, [r2, #1]	@ zero_extendqisi2
 904 0064 1278     		ldrb	r2, [r2]	@ zero_extendqisi2
 905 0066 2946     		mov	r1, r5
 906 0068 4020     		movs	r0, #64
 907 006a FFF7FEFF 		bl	CySpcWriteRow
 908              	.LVL108:
 909 006e 0728     		cmp	r0, #7
 910 0070 16D1     		bne	.L100
 911              	.L92:
 686:Generated_Source\PSoC5/EEPROM.c ****                     dieTemperature[1u]) == CYRET_STARTED)
 687:Generated_Source\PSoC5/EEPROM.c ****                     {
 688:Generated_Source\PSoC5/EEPROM.c ****                         /* Plan for failure */
 689:Generated_Source\PSoC5/EEPROM.c ****                         status = CYRET_UNKNOWN;
 690:Generated_Source\PSoC5/EEPROM.c **** 
 691:Generated_Source\PSoC5/EEPROM.c ****                         while(CY_SPC_BUSY)
 912              		.loc 1 691 0 discriminator 1
 913 0072 134B     		ldr	r3, .L103
 914 0074 1B78     		ldrb	r3, [r3]	@ zero_extendqisi2
 915 0076 13F0020F 		tst	r3, #2
 916 007a FAD0     		beq	.L92
 692:Generated_Source\PSoC5/EEPROM.c ****                         {
 693:Generated_Source\PSoC5/EEPROM.c ****                             /* Wait until SPC becomes idle */
 694:Generated_Source\PSoC5/EEPROM.c ****                         }
 695:Generated_Source\PSoC5/EEPROM.c **** 
 696:Generated_Source\PSoC5/EEPROM.c ****                         /* SPC is idle now */
 697:Generated_Source\PSoC5/EEPROM.c ****                         if(CY_SPC_STATUS_SUCCESS == CY_SPC_READ_STATUS)
 917              		.loc 1 697 0
 918 007c 104B     		ldr	r3, .L103
 919 007e 1B78     		ldrb	r3, [r3]	@ zero_extendqisi2
 920 0080 13F0020F 		tst	r3, #2
 921 0084 0FD0     		beq	.L101
 922              		.loc 1 697 0 is_stmt 0 discriminator 1
 923 0086 0E4B     		ldr	r3, .L103
 924 0088 1B78     		ldrb	r3, [r3]	@ zero_extendqisi2
 925 008a 9B08     		lsrs	r3, r3, #2
 926 008c 0DD0     		beq	.L89
 689:Generated_Source\PSoC5/EEPROM.c **** 
 927              		.loc 1 689 0 is_stmt 1
 928 008e 4FF0FF34 		mov	r4, #-1
 929              	.LVL109:
ARM GAS  C:\Users\Shaunak\AppData\Local\Temp\ccyISjfe.s 			page 30


 930 0092 0AE0     		b	.L89
 931              	.LVL110:
 932              	.L96:
 665:Generated_Source\PSoC5/EEPROM.c **** 
 933              		.loc 1 665 0
 934 0094 4FF0FF34 		mov	r4, #-1
 935 0098 07E0     		b	.L89
 936              	.LVL111:
 937              	.L99:
 698:Generated_Source\PSoC5/EEPROM.c ****                         {
 699:Generated_Source\PSoC5/EEPROM.c ****                             status = CYRET_SUCCESS;
 700:Generated_Source\PSoC5/EEPROM.c ****                         }
 701:Generated_Source\PSoC5/EEPROM.c ****                     }
 702:Generated_Source\PSoC5/EEPROM.c ****                     else
 703:Generated_Source\PSoC5/EEPROM.c ****                     {
 704:Generated_Source\PSoC5/EEPROM.c ****                         status = CYRET_UNKNOWN;
 705:Generated_Source\PSoC5/EEPROM.c ****                     }
 706:Generated_Source\PSoC5/EEPROM.c ****                 }
 707:Generated_Source\PSoC5/EEPROM.c ****                 else
 708:Generated_Source\PSoC5/EEPROM.c ****                 {
 709:Generated_Source\PSoC5/EEPROM.c ****                     status = CYRET_UNKNOWN;
 938              		.loc 1 709 0
 939 009a 4FF0FF34 		mov	r4, #-1
 940              	.LVL112:
 941 009e 04E0     		b	.L89
 942              	.LVL113:
 943              	.L100:
 704:Generated_Source\PSoC5/EEPROM.c ****                     }
 944              		.loc 1 704 0
 945 00a0 4FF0FF34 		mov	r4, #-1
 946              	.LVL114:
 947 00a4 01E0     		b	.L89
 948              	.LVL115:
 949              	.L101:
 689:Generated_Source\PSoC5/EEPROM.c **** 
 950              		.loc 1 689 0
 951 00a6 4FF0FF34 		mov	r4, #-1
 952              	.LVL116:
 953              	.L89:
 710:Generated_Source\PSoC5/EEPROM.c ****                 }
 711:Generated_Source\PSoC5/EEPROM.c ****             }
 712:Generated_Source\PSoC5/EEPROM.c **** 
 713:Generated_Source\PSoC5/EEPROM.c ****             /* Unlock SPC so that someone else can use it. */
 714:Generated_Source\PSoC5/EEPROM.c ****             CySpcUnlock();
 954              		.loc 1 714 0
 955 00aa FFF7FEFF 		bl	CySpcUnlock
 956              	.LVL117:
 957 00ae 04E0     		b	.L88
 958              	.LVL118:
 959              	.L93:
 715:Generated_Source\PSoC5/EEPROM.c ****         }
 716:Generated_Source\PSoC5/EEPROM.c ****         else
 717:Generated_Source\PSoC5/EEPROM.c ****         {
 718:Generated_Source\PSoC5/EEPROM.c ****             status = CYRET_LOCKED;
 719:Generated_Source\PSoC5/EEPROM.c ****         }
 720:Generated_Source\PSoC5/EEPROM.c ****     }
 721:Generated_Source\PSoC5/EEPROM.c ****     else
ARM GAS  C:\Users\Shaunak\AppData\Local\Temp\ccyISjfe.s 			page 31


 722:Generated_Source\PSoC5/EEPROM.c ****     {
 723:Generated_Source\PSoC5/EEPROM.c ****         status = CYRET_BAD_PARAM;
 960              		.loc 1 723 0
 961 00b0 0124     		movs	r4, #1
 962 00b2 02E0     		b	.L88
 963              	.L94:
 964 00b4 0124     		movs	r4, #1
 965 00b6 00E0     		b	.L88
 966              	.L95:
 718:Generated_Source\PSoC5/EEPROM.c ****         }
 967              		.loc 1 718 0
 968 00b8 0424     		movs	r4, #4
 969              	.L88:
 970              	.LVL119:
 724:Generated_Source\PSoC5/EEPROM.c ****     }
 725:Generated_Source\PSoC5/EEPROM.c **** 
 726:Generated_Source\PSoC5/EEPROM.c ****     return(status);
 727:Generated_Source\PSoC5/EEPROM.c **** }
 971              		.loc 1 727 0
 972 00ba 2046     		mov	r0, r4
 973 00bc 03B0     		add	sp, sp, #12
 974              		.cfi_def_cfa_offset 12
 975              		@ sp needed
 976 00be 30BD     		pop	{r4, r5, pc}
 977              	.LVL120:
 978              	.L104:
 979              		.align	2
 980              	.L103:
 981 00c0 22470040 		.word	1073760034
 982 00c4 00000000 		.word	dieTemperature
 983              		.cfi_endproc
 984              	.LFE11:
 985              		.size	EEPROM_ByteWritePos, .-EEPROM_ByteWritePos
 986              		.text
 987              	.Letext0:
 988              		.file 2 "Generated_Source\\PSoC5\\cytypes.h"
 989              		.file 3 "Generated_Source\\PSoC5\\CyFlash.h"
 990              		.file 4 "Generated_Source\\PSoC5\\CySpc.h"
 991              		.file 5 "Generated_Source\\PSoC5\\CyLib.h"