ARM GAS  C:\Users\Shaunak\AppData\Local\Temp\ccLty0Bv.s 			page 1


   1              		.syntax unified
   2              		.cpu cortex-m3
   3              		.fpu softvfp
   4              		.eabi_attribute 20, 1
   5              		.eabi_attribute 21, 1
   6              		.eabi_attribute 23, 3
   7              		.eabi_attribute 24, 1
   8              		.eabi_attribute 25, 1
   9              		.eabi_attribute 26, 1
  10              		.eabi_attribute 30, 1
  11              		.eabi_attribute 34, 1
  12              		.eabi_attribute 18, 4
  13              		.thumb
  14              		.syntax unified
  15              		.file	"main.c"
  16              		.text
  17              	.Ltext0:
  18              		.cfi_sections	.debug_frame
  19              		.section	.text.ISRModbusRTUOverUARTRxHandler,"ax",%progbits
  20              		.align	2
  21              		.global	ISRModbusRTUOverUARTRxHandler
  22              		.thumb
  23              		.thumb_func
  24              		.type	ISRModbusRTUOverUARTRxHandler, %function
  25              	ISRModbusRTUOverUARTRxHandler:
  26              	.LFB69:
  27              		.file 1 "main.c"
   1:main.c        **** /*==============================================================================
   2:main.c        **** * Project : Implementation of Modbus RTU Function Subset on Cypress PSoC5
   3:main.c        **** * Author : EmbVerse (www.embverse.com)
   4:main.c        **** * Date : August 25, 2021
   5:main.c        **** * Description : The project implements 8 Modbus RTU Functions with a dedicated 
   6:main.c        **** * C library that can be used in general. The 8 Modbus Functions are as below :
   7:main.c        **** * 1. 0x01 : Read Coils
   8:main.c        **** * 2. 0x02 : Read Discrete Inputs
   9:main.c        **** * 3. 0x03 : Read Holding Registers
  10:main.c        **** * 4. 0x04 : Read Input Registers
  11:main.c        **** * 5. 0x05 : Write Single Coil
  12:main.c        **** * 6. 0x06 : Write Single Register
  13:main.c        **** * 7. 0x0F : Write Multiple Coils
  14:main.c        **** * 8. 0x10 : Write Multiple Registers
  15:main.c        **** * The Development Kit used in the project is found here :
  16:main.c        **** * https://www.cypress.com/documentation/development-kitsboards/cy8ckit-059-psoc-5lp-prototyping-kit
  17:main.c        **** * The working of all the functions has been tested on a Modbus Master Tool called qModbus.
  18:main.c        **** * Download qModbus from here : https://sourceforge.net/projects/qmodbus/
  19:main.c        **** *===============================================================================
  20:main.c        **** */
  21:main.c        **** #include <project.h>
  22:main.c        **** #include <stdio.h>
  23:main.c        **** #include <stdbool.h>
  24:main.c        **** #include <stdlib.h>
  25:main.c        **** #include <string.h>
  26:main.c        **** #include "modbus_rtu.h"
  27:main.c        **** 
  28:main.c        **** // Defined Constants - Start -
  29:main.c        **** #define USED_EEPROM_SECTOR (1u)
  30:main.c        **** #define FIRST_POWERUP_EEPROM_ADDRESS ((USED_EEPROM_SECTOR * CYDEV_EEPROM_SECTOR_SIZE) + 0x00)
ARM GAS  C:\Users\Shaunak\AppData\Local\Temp\ccLty0Bv.s 			page 2


  31:main.c        **** #define COIL_BEGIN_EEPROM_ADDRESS FIRST_POWERUP_EEPROM_ADDRESS + 1
  32:main.c        **** #define HOLDING_REGISTER_BEGIN_EEPROM_ADDRESS COIL_BEGIN_EEPROM_ADDRESS + 8
  33:main.c        **** #define DISCRETE_INPUT_BEGIN_EEPROM_ADDRESS HOLDING_REGISTER_BEGIN_EEPROM_ADDRESS + 128
  34:main.c        **** #define INPUT_REGISTER_BEGIN_EEPROM_ADDRESS DISCRETE_INPUT_BEGIN_EEPROM_ADDRESS + 8
  35:main.c        **** #define COIL 0x00
  36:main.c        **** #define DISCRETE_INPUT COIL + 1
  37:main.c        **** #define INPUT_REGISTER DISCRETE_INPUT + 1
  38:main.c        **** #define HOLDING_REGISTER INPUT_REGISTER + 1
  39:main.c        **** #define MODBUS_IDLE 0u
  40:main.c        **** #define MODBUS_Rx_DATA_COLLECTION MODBUS_IDLE + 1
  41:main.c        **** #define MODBUS_Rx_DATA_RECEIVED MODBUS_Rx_DATA_COLLECTION + 1
  42:main.c        **** #define SET 1u
  43:main.c        **** #define CLEAR 0u
  44:main.c        **** #define NO_OF_TICKS 24000u
  45:main.c        **** #define STATUS_LED_ON Status_LED_Write(SET)
  46:main.c        **** #define STATUS_LED_OFF Status_LED_Write(CLEAR)
  47:main.c        **** #define STATUS_LED_TOGGLE Status_LED_Write(!Status_LED_Read())
  48:main.c        **** // Defined Constants - End -
  49:main.c        **** 
  50:main.c        **** // Variable Declaration - Start -
  51:main.c        **** uint8 byte_count = 0;
  52:main.c        **** uint8 modbus_received_data[64];
  53:main.c        **** uint8 fsm = MODBUS_IDLE;
  54:main.c        **** uint8 uart_data_rx[64];
  55:main.c        **** uint32  SysTick_value;
  56:main.c        **** volatile uint32 source = 0;
  57:main.c        **** char rx_character;
  58:main.c        **** // Variable Declaration - End -
  59:main.c        **** 
  60:main.c        **** // Interrupt Service Routine Declaration - Start - 
  61:main.c        **** CY_ISR_PROTO(MySysTickHandler);
  62:main.c        **** CY_ISR_PROTO (ISRModbusRTUOverUARTRxHandler);
  63:main.c        **** // Interrupt Service Routine Declaration - End
  64:main.c        **** 
  65:main.c        **** //Function Declaration - Start -
  66:main.c        **** void initialize_eeprom(void);
  67:main.c        **** void read_eeprom(void);
  68:main.c        **** void update_eeprom(uint8_t parameter);
  69:main.c        **** void system_initialize(void);
  70:main.c        **** //Function Declaration - End -
  71:main.c        **** 
  72:main.c        **** void initialize_eeprom(void)
  73:main.c        **** {    
  74:main.c        ****     for(uint8 i = 0; i < COIL_BYTES; i++)
  75:main.c        ****     {
  76:main.c        ****         modbus_coil_value[i] = 0xFF;
  77:main.c        ****         modbus_response_coil_temp[i] = modbus_coil_value[i];
  78:main.c        ****     }    
  79:main.c        ****     update_eeprom(COIL);   
  80:main.c        ****     for(uint8 i = 0; i < DISCRETE_INPUT_BYTES; i++)
  81:main.c        ****     {
  82:main.c        ****         modbus_discrete_input_value[i] = 0xFF;                
  83:main.c        ****         modbus_response_discrete_input_temp[i] = modbus_discrete_input_value[i];
  84:main.c        ****     }
  85:main.c        ****     update_eeprom(DISCRETE_INPUT);
  86:main.c        ****     for(uint8 i = 0; i < NUMBER_OF_HOLDING_REGISTERS; i++)
  87:main.c        ****     {   
ARM GAS  C:\Users\Shaunak\AppData\Local\Temp\ccLty0Bv.s 			page 3


  88:main.c        ****         modbus_holding_registers_value[i] = 0xFFFF;
  89:main.c        ****         modbus_response_holding_registers_temp[i] = modbus_holding_registers_value[i];
  90:main.c        ****     }
  91:main.c        ****     update_eeprom(HOLDING_REGISTER);
  92:main.c        ****     for(uint8 i = 0; i < NUMBER_OF_INPUT_REGISTERS; i++)
  93:main.c        ****     {
  94:main.c        ****         modbus_input_registers_value[i] = 0xAA55;
  95:main.c        ****         modbus_response_input_registers_temp[i] =  modbus_input_registers_value[i];
  96:main.c        ****     }
  97:main.c        ****     update_eeprom(INPUT_REGISTER);
  98:main.c        **** }
  99:main.c        **** void read_eeprom(void)
 100:main.c        **** {
 101:main.c        ****     for(uint8 i = 0; i < COIL_BYTES; i++)
 102:main.c        ****     {
 103:main.c        ****         modbus_coil_value[i] = EEPROM_ReadByte(COIL_BEGIN_EEPROM_ADDRESS + i);
 104:main.c        ****         modbus_response_coil_temp[i] = modbus_coil_value[i];
 105:main.c        ****     }
 106:main.c        ****     for(uint8 i = 0; i < DISCRETE_INPUT_BYTES; i++)
 107:main.c        ****     {
 108:main.c        ****         modbus_discrete_input_value[i] = EEPROM_ReadByte(DISCRETE_INPUT_BEGIN_EEPROM_ADDRESS + i);
 109:main.c        ****         modbus_response_discrete_input_temp[i] = modbus_discrete_input_value[i];
 110:main.c        ****     }
 111:main.c        ****     for(uint8 i = 0; i < NUMBER_OF_HOLDING_REGISTERS; i++)
 112:main.c        ****     {
 113:main.c        ****         modbus_holding_registers_value[i] = (uint16)(EEPROM_ReadByte(HOLDING_REGISTER_BEGIN_EEPROM_
 114:main.c        ****                                           | (uint16)(EEPROM_ReadByte(HOLDING_REGISTER_BEGIN_EEPROM_
 115:main.c        ****         modbus_response_holding_registers_temp[i] = modbus_holding_registers_value[i];
 116:main.c        ****     }
 117:main.c        ****     for(uint8 i = 0; i < NUMBER_OF_INPUT_REGISTERS; i++)
 118:main.c        ****     {
 119:main.c        ****         modbus_input_registers_value[i] = (uint16)(EEPROM_ReadByte(INPUT_REGISTER_BEGIN_EEPROM_ADDR
 120:main.c        ****                                           | (uint16)(EEPROM_ReadByte(INPUT_REGISTER_BEGIN_EEPROM_AD
 121:main.c        ****         modbus_response_input_registers_temp[i] = modbus_input_registers_value[i];
 122:main.c        ****     }
 123:main.c        **** }
 124:main.c        **** void update_eeprom(uint8_t parameter)
 125:main.c        **** {
 126:main.c        ****     switch(parameter)
 127:main.c        ****     {
 128:main.c        ****         case COIL:
 129:main.c        ****             for(uint8 i = 0; i < COIL_BYTES; i++)
 130:main.c        ****             {
 131:main.c        ****                 modbus_coil_value[i] = modbus_response_coil_temp[i];
 132:main.c        ****                 EEPROM_WriteByte(modbus_coil_value[i], COIL_BEGIN_EEPROM_ADDRESS + i);
 133:main.c        ****             }
 134:main.c        ****             break;
 135:main.c        ****         case DISCRETE_INPUT:
 136:main.c        ****             for(uint8 i = 0; i < DISCRETE_INPUT_BYTES; i++)
 137:main.c        ****             {
 138:main.c        ****                 modbus_discrete_input_value[i] = modbus_response_discrete_input_temp[i];
 139:main.c        ****                 EEPROM_WriteByte(modbus_discrete_input_value[i], DISCRETE_INPUT_BEGIN_EEPROM_ADDRES
 140:main.c        ****             }
 141:main.c        ****             break;    
 142:main.c        ****         case HOLDING_REGISTER:
 143:main.c        ****             for(uint8 i = 0; i < NUMBER_OF_HOLDING_REGISTERS; i++)
 144:main.c        ****             {
ARM GAS  C:\Users\Shaunak\AppData\Local\Temp\ccLty0Bv.s 			page 4


 145:main.c        ****                 modbus_holding_registers_value[i] = modbus_response_holding_registers_temp[i];
 146:main.c        ****                 EEPROM_WriteByte((uint8_t)(modbus_holding_registers_value[i] >> 8), HOLDING_REGISTE
 147:main.c        ****                 EEPROM_WriteByte((uint8_t)(modbus_holding_registers_value[i]) & 0xFF, HOLDING_REGIS
 148:main.c        ****             }
 149:main.c        ****             break;
 150:main.c        ****         case INPUT_REGISTER:
 151:main.c        ****             for(uint8 i = 0; i < NUMBER_OF_INPUT_REGISTERS; i++)
 152:main.c        ****             {
 153:main.c        ****                 modbus_input_registers_value[i] = modbus_response_input_registers_temp[i];
 154:main.c        ****                 EEPROM_WriteByte((uint8_t)(modbus_input_registers_value[i] >> 8), INPUT_REGISTER_BE
 155:main.c        ****                 EEPROM_WriteByte((uint8_t)(modbus_input_registers_value[i] & 0xFF), INPUT_REGISTER_
 156:main.c        ****             }
 157:main.c        ****             break;    
 158:main.c        ****         default:    
 159:main.c        ****             break;            
 160:main.c        ****     }
 161:main.c        **** }
 162:main.c        **** 
 163:main.c        **** void system_initialize(void)
 164:main.c        **** {
 165:main.c        ****     CyGlobalIntEnable; /* Enable global interrupts. */
 166:main.c        ****     EEPROM_Start();
 167:main.c        ****     CySysTickStart();  /* Start the systick */
 168:main.c        ****     CySysTickSetCallback(0, MySysTickHandler);  /* Add the Systick callback */
 169:main.c        ****     SysTick_value = 0;
 170:main.c        ****     uint8 EEPROM_PowerUp_flag;   
 171:main.c        ****     EEPROM_PowerUp_flag = EEPROM_ReadByte(FIRST_POWERUP_EEPROM_ADDRESS);    
 172:main.c        ****     if(EEPROM_PowerUp_flag == 0)
 173:main.c        ****     {
 174:main.c        ****         STATUS_LED_ON;
 175:main.c        ****         initialize_eeprom();
 176:main.c        ****         EEPROM_PowerUp_flag = 1;
 177:main.c        ****         EEPROM_WriteByte(EEPROM_PowerUp_flag, FIRST_POWERUP_EEPROM_ADDRESS);
 178:main.c        ****     }
 179:main.c        ****     else
 180:main.c        ****         STATUS_LED_OFF;
 181:main.c        ****     read_eeprom();   
 182:main.c        ****     Modbus_RTU_Over_UART_Start();
 183:main.c        ****     ISR_MBRTU_UART_Rx_StartEx(ISRModbusRTUOverUARTRxHandler);                                    //
 184:main.c        ****         
 185:main.c        **** }
 186:main.c        **** int main(void)
 187:main.c        **** {
 188:main.c        ****     system_initialize();
 189:main.c        ****     while(1)
 190:main.c        ****     {
 191:main.c        ****         if(fsm == MODBUS_Rx_DATA_RECEIVED)
 192:main.c        ****         {            
 193:main.c        ****             for(uint8 i = 0; i <= byte_count; i++)
 194:main.c        ****             {
 195:main.c        ****                 modbus_received_data[i] = uart_data_rx[i];
 196:main.c        ****             }
 197:main.c        ****             if(modbus_received_data[0] == MODBUS_SLAVE_ADDRESS)
 198:main.c        ****             {
 199:main.c        ****                 switch(modbus_received_data[1])
 200:main.c        ****                 {
 201:main.c        ****                     case 0x01:
ARM GAS  C:\Users\Shaunak\AppData\Local\Temp\ccLty0Bv.s 			page 5


 202:main.c        ****                         query_response_read_coil(&modbus_received_data[0], byte_count + 1);
 203:main.c        ****                         for(uint8 i = 0; i < modbus_response_data_length; i++)
 204:main.c        ****                         {
 205:main.c        ****                             Modbus_RTU_Over_UART_PutChar(modbus_response_read_coil[i]);
 206:main.c        ****                         }
 207:main.c        ****                         break;
 208:main.c        ****                     case 0x02:
 209:main.c        ****                         query_response_read_discrete_input(&modbus_received_data[0], byte_count + 1
 210:main.c        ****                 
 211:main.c        ****                         for(uint8 i = 0; i < modbus_response_data_length; i++)
 212:main.c        ****                         {
 213:main.c        ****                             Modbus_RTU_Over_UART_PutChar(modbus_response_read_discrete_input[i]);
 214:main.c        ****                         }
 215:main.c        ****                         break;
 216:main.c        ****                     case 0x03 :
 217:main.c        ****                         query_response_read_holding_registers(&modbus_received_data[0], byte_count 
 218:main.c        ****                         for(uint8 i = 0; i < modbus_response_data_length; i++)
 219:main.c        ****                         {
 220:main.c        ****                             Modbus_RTU_Over_UART_PutChar(modbus_response_read_holding_registers[i])
 221:main.c        ****                         }
 222:main.c        ****                         break;
 223:main.c        ****                     case 0x04 :
 224:main.c        ****                         query_response_read_input_registers(&modbus_received_data[0], byte_count + 
 225:main.c        ****                         for(uint8 i = 0; i < modbus_response_data_length; i++)
 226:main.c        ****                         {
 227:main.c        ****                             Modbus_RTU_Over_UART_PutChar(modbus_response_read_input_registers[i]);
 228:main.c        ****                         }
 229:main.c        ****                         break;
 230:main.c        ****                     case 0x05 :
 231:main.c        ****                         query_response_force_single_coil(&modbus_received_data[0], byte_count + 1);
 232:main.c        ****                         for(uint8 i = 0; i < modbus_response_data_length; i++)
 233:main.c        ****                         {
 234:main.c        ****                             Modbus_RTU_Over_UART_PutChar(modbus_response_force_single_coil[i]);
 235:main.c        ****                         }
 236:main.c        ****                         update_eeprom(COIL);
 237:main.c        ****                         break;
 238:main.c        ****                     case 0x06 :
 239:main.c        ****                         query_response_preset_single_register(&modbus_received_data[0], byte_count 
 240:main.c        ****                         for(uint8 i = 0; i < modbus_response_data_length; i++)
 241:main.c        ****                         {
 242:main.c        ****                             Modbus_RTU_Over_UART_PutChar(modbus_response_preset_single_register[i])
 243:main.c        ****                         }
 244:main.c        ****                         update_eeprom(HOLDING_REGISTER);
 245:main.c        ****                         break;
 246:main.c        ****                     case 0x0F :
 247:main.c        ****                         query_response_force_multiple_coils(&modbus_received_data[0], byte_count + 
 248:main.c        ****                         for(uint8 i = 0; i < modbus_response_data_length; i++)
 249:main.c        ****                         {
 250:main.c        ****                             Modbus_RTU_Over_UART_PutChar(modbus_response_force_multiple_coils[i]);
 251:main.c        ****                         }
 252:main.c        ****                         update_eeprom(COIL);
 253:main.c        ****                         break;
 254:main.c        ****                     case 0x10 :
 255:main.c        ****                         query_response_preset_multiple_registers(&modbus_received_data[0], byte_cou
 256:main.c        ****                         for(uint8 i = 0; i < modbus_response_data_length; i++)
 257:main.c        ****                         {
 258:main.c        ****                             Modbus_RTU_Over_UART_PutChar(modbus_response_preset_multiple_registers[
ARM GAS  C:\Users\Shaunak\AppData\Local\Temp\ccLty0Bv.s 			page 6


 259:main.c        ****                         }
 260:main.c        ****                         update_eeprom(HOLDING_REGISTER);
 261:main.c        ****                         break;
 262:main.c        ****                     default :
 263:main.c        ****                         break;                        
 264:main.c        ****                 }
 265:main.c        ****             }     
 266:main.c        ****             fsm = MODBUS_IDLE;
 267:main.c        ****             byte_count = 0;
 268:main.c        ****         }
 269:main.c        ****     }
 270:main.c        **** }
 271:main.c        **** 
 272:main.c        **** CY_ISR(ISRModbusRTUOverUARTRxHandler)
 273:main.c        **** {
  28              		.loc 1 273 0
  29              		.cfi_startproc
  30              		@ args = 0, pretend = 0, frame = 0
  31              		@ frame_needed = 0, uses_anonymous_args = 0
  32 0000 10B5     		push	{r4, lr}
  33              		.cfi_def_cfa_offset 8
  34              		.cfi_offset 4, -8
  35              		.cfi_offset 14, -4
 274:main.c        ****     rx_character =  Modbus_RTU_Over_UART_GetChar();
  36              		.loc 1 274 0
  37 0002 FFF7FEFF 		bl	Modbus_RTU_Over_UART_GetChar
  38              	.LVL0:
  39 0006 1A4B     		ldr	r3, .L6
  40 0008 1870     		strb	r0, [r3]
 275:main.c        ****     CySysTickStart();
  41              		.loc 1 275 0
  42 000a FFF7FEFF 		bl	CySysTickStart
  43              	.LVL1:
 276:main.c        ****     switch(fsm)
  44              		.loc 1 276 0
  45 000e 194B     		ldr	r3, .L6+4
  46 0010 1B78     		ldrb	r3, [r3]	@ zero_extendqisi2
  47 0012 13B1     		cbz	r3, .L3
  48 0014 012B     		cmp	r3, #1
  49 0016 11D0     		beq	.L4
  50 0018 20E0     		b	.L2
  51              	.L3:
 277:main.c        ****     {
 278:main.c        ****         case MODBUS_IDLE:
 279:main.c        ****         {
 280:main.c        ****             uart_data_rx[0] = rx_character;
  52              		.loc 1 280 0
  53 001a 154B     		ldr	r3, .L6
  54 001c 1B78     		ldrb	r3, [r3]	@ zero_extendqisi2
  55 001e 164A     		ldr	r2, .L6+8
  56 0020 1370     		strb	r3, [r2]
 281:main.c        ****             if(uart_data_rx[0] == MODBUS_SLAVE_ADDRESS)
  57              		.loc 1 281 0
  58 0022 012B     		cmp	r3, #1
  59 0024 1AD1     		bne	.L2
 282:main.c        ****             {
 283:main.c        ****                 fsm = MODBUS_Rx_DATA_COLLECTION;
ARM GAS  C:\Users\Shaunak\AppData\Local\Temp\ccLty0Bv.s 			page 7


  60              		.loc 1 283 0
  61 0026 0122     		movs	r2, #1
  62 0028 124B     		ldr	r3, .L6+4
  63 002a 1A70     		strb	r2, [r3]
 284:main.c        ****                 CySysTickClear();
  64              		.loc 1 284 0
  65 002c FFF7FEFF 		bl	CySysTickClear
  66              	.LVL2:
 285:main.c        ****                 SysTick_value = 0;
  67              		.loc 1 285 0
  68 0030 0022     		movs	r2, #0
  69 0032 124B     		ldr	r3, .L6+12
  70 0034 1A60     		str	r2, [r3]
 286:main.c        ****                 CySysTickStart();
  71              		.loc 1 286 0
  72 0036 FFF7FEFF 		bl	CySysTickStart
  73              	.LVL3:
 287:main.c        ****                 break;
  74              		.loc 1 287 0
  75 003a 0FE0     		b	.L2
  76              	.L4:
 288:main.c        ****             }
 289:main.c        ****             else
 290:main.c        ****             {
 291:main.c        ****                 break;
 292:main.c        ****             }
 293:main.c        ****         }
 294:main.c        ****         case MODBUS_Rx_DATA_COLLECTION:
 295:main.c        ****         {
 296:main.c        ****             byte_count++;
  77              		.loc 1 296 0
  78 003c 0D4A     		ldr	r2, .L6+4
  79 003e 5378     		ldrb	r3, [r2, #1]	@ zero_extendqisi2
  80 0040 0133     		adds	r3, r3, #1
  81 0042 DBB2     		uxtb	r3, r3
  82 0044 5370     		strb	r3, [r2, #1]
 297:main.c        ****             uart_data_rx[byte_count] = rx_character;
  83              		.loc 1 297 0
  84 0046 0A4A     		ldr	r2, .L6
  85 0048 1178     		ldrb	r1, [r2]	@ zero_extendqisi2
  86 004a 0B4A     		ldr	r2, .L6+8
  87 004c D154     		strb	r1, [r2, r3]
 298:main.c        ****             CySysTickClear();
  88              		.loc 1 298 0
  89 004e FFF7FEFF 		bl	CySysTickClear
  90              	.LVL4:
 299:main.c        ****             SysTick_value = 0;
  91              		.loc 1 299 0
  92 0052 0022     		movs	r2, #0
  93 0054 094B     		ldr	r3, .L6+12
  94 0056 1A60     		str	r2, [r3]
 300:main.c        ****             CySysTickStart();
  95              		.loc 1 300 0
  96 0058 FFF7FEFF 		bl	CySysTickStart
  97              	.LVL5:
  98              	.L2:
 301:main.c        ****             break;
ARM GAS  C:\Users\Shaunak\AppData\Local\Temp\ccLty0Bv.s 			page 8


 302:main.c        ****         }
 303:main.c        ****     }
 304:main.c        ****     source =  Modbus_RTU_Over_UART_ReadRxStatus();
  99              		.loc 1 304 0
 100 005c FFF7FEFF 		bl	Modbus_RTU_Over_UART_ReadRxStatus
 101              	.LVL6:
 102 0060 044C     		ldr	r4, .L6+4
 103 0062 6060     		str	r0, [r4, #4]
 305:main.c        ****     Modbus_RTU_Over_UART_ClearRxBuffer();
 104              		.loc 1 305 0
 105 0064 FFF7FEFF 		bl	Modbus_RTU_Over_UART_ClearRxBuffer
 106              	.LVL7:
 306:main.c        ****     source = 0;
 107              		.loc 1 306 0
 108 0068 0023     		movs	r3, #0
 109 006a 6360     		str	r3, [r4, #4]
 110 006c 10BD     		pop	{r4, pc}
 111              	.L7:
 112 006e 00BF     		.align	2
 113              	.L6:
 114 0070 00000000 		.word	rx_character
 115 0074 00000000 		.word	.LANCHOR0
 116 0078 00000000 		.word	uart_data_rx
 117 007c 00000000 		.word	SysTick_value
 118              		.cfi_endproc
 119              	.LFE69:
 120              		.size	ISRModbusRTUOverUARTRxHandler, .-ISRModbusRTUOverUARTRxHandler
 121              		.section	.text.MySysTickHandler,"ax",%progbits
 122              		.align	2
 123              		.global	MySysTickHandler
 124              		.thumb
 125              		.thumb_func
 126              		.type	MySysTickHandler, %function
 127              	MySysTickHandler:
 128              	.LFB70:
 307:main.c        **** }
 308:main.c        **** CY_ISR(MySysTickHandler)
 309:main.c        **** {
 129              		.loc 1 309 0
 130              		.cfi_startproc
 131              		@ args = 0, pretend = 0, frame = 0
 132              		@ frame_needed = 0, uses_anonymous_args = 0
 133 0000 08B5     		push	{r3, lr}
 134              		.cfi_def_cfa_offset 8
 135              		.cfi_offset 3, -8
 136              		.cfi_offset 14, -4
 310:main.c        ****     SysTick_value++;
 137              		.loc 1 310 0
 138 0002 074A     		ldr	r2, .L11
 139 0004 1368     		ldr	r3, [r2]
 140 0006 0133     		adds	r3, r3, #1
 141 0008 1360     		str	r3, [r2]
 311:main.c        ****     if(SysTick_value >= 4u)
 142              		.loc 1 311 0
 143 000a 032B     		cmp	r3, #3
 144 000c 07D9     		bls	.L8
 312:main.c        ****     {
ARM GAS  C:\Users\Shaunak\AppData\Local\Temp\ccLty0Bv.s 			page 9


 313:main.c        ****         SysTick_value = 0;
 145              		.loc 1 313 0
 146 000e 0022     		movs	r2, #0
 147 0010 034B     		ldr	r3, .L11
 148 0012 1A60     		str	r2, [r3]
 314:main.c        ****         fsm =  MODBUS_Rx_DATA_RECEIVED;
 149              		.loc 1 314 0
 150 0014 0222     		movs	r2, #2
 151 0016 034B     		ldr	r3, .L11+4
 152 0018 1A70     		strb	r2, [r3]
 315:main.c        ****         CySysTickStop();
 153              		.loc 1 315 0
 154 001a FFF7FEFF 		bl	CySysTickStop
 155              	.LVL8:
 156              	.L8:
 157 001e 08BD     		pop	{r3, pc}
 158              	.L12:
 159              		.align	2
 160              	.L11:
 161 0020 00000000 		.word	SysTick_value
 162 0024 00000000 		.word	.LANCHOR0
 163              		.cfi_endproc
 164              	.LFE70:
 165              		.size	MySysTickHandler, .-MySysTickHandler
 166              		.section	.text.read_eeprom,"ax",%progbits
 167              		.align	2
 168              		.global	read_eeprom
 169              		.thumb
 170              		.thumb_func
 171              		.type	read_eeprom, %function
 172              	read_eeprom:
 173              	.LFB65:
 100:main.c        ****     for(uint8 i = 0; i < COIL_BYTES; i++)
 174              		.loc 1 100 0
 175              		.cfi_startproc
 176              		@ args = 0, pretend = 0, frame = 0
 177              		@ frame_needed = 0, uses_anonymous_args = 0
 178 0000 70B5     		push	{r4, r5, r6, lr}
 179              		.cfi_def_cfa_offset 16
 180              		.cfi_offset 4, -16
 181              		.cfi_offset 5, -12
 182              		.cfi_offset 6, -8
 183              		.cfi_offset 14, -4
 184              	.LVL9:
 185              	.LBB2:
 101:main.c        ****     {
 186              		.loc 1 101 0
 187 0002 0024     		movs	r4, #0
 188 0004 09E0     		b	.L14
 189              	.LVL10:
 190              	.L15:
 103:main.c        ****         modbus_response_coil_temp[i] = modbus_coil_value[i];
 191              		.loc 1 103 0 discriminator 3
 192 0006 04F20140 		addw	r0, r4, #1025
 193 000a FFF7FEFF 		bl	EEPROM_ReadByte
 194              	.LVL11:
 195 000e 274B     		ldr	r3, .L23
ARM GAS  C:\Users\Shaunak\AppData\Local\Temp\ccLty0Bv.s 			page 10


 196 0010 1855     		strb	r0, [r3, r4]
 104:main.c        ****     }
 197              		.loc 1 104 0 discriminator 3
 198 0012 274B     		ldr	r3, .L23+4
 199 0014 1855     		strb	r0, [r3, r4]
 101:main.c        ****     {
 200              		.loc 1 101 0 discriminator 3
 201 0016 0134     		adds	r4, r4, #1
 202              	.LVL12:
 203 0018 E4B2     		uxtb	r4, r4
 204              	.LVL13:
 205              	.L14:
 101:main.c        ****     {
 206              		.loc 1 101 0 is_stmt 0 discriminator 1
 207 001a 072C     		cmp	r4, #7
 208 001c F3D9     		bls	.L15
 209 001e 0024     		movs	r4, #0
 210              	.LVL14:
 211 0020 09E0     		b	.L16
 212              	.LVL15:
 213              	.L17:
 214              	.LBE2:
 215              	.LBB3:
 108:main.c        ****         modbus_response_discrete_input_temp[i] = modbus_discrete_input_value[i];
 216              		.loc 1 108 0 is_stmt 1 discriminator 3
 217 0022 04F28940 		addw	r0, r4, #1161
 218 0026 FFF7FEFF 		bl	EEPROM_ReadByte
 219              	.LVL16:
 220 002a 224B     		ldr	r3, .L23+8
 221 002c 1855     		strb	r0, [r3, r4]
 109:main.c        ****     }
 222              		.loc 1 109 0 discriminator 3
 223 002e 224B     		ldr	r3, .L23+12
 224 0030 1855     		strb	r0, [r3, r4]
 106:main.c        ****     {
 225              		.loc 1 106 0 discriminator 3
 226 0032 0134     		adds	r4, r4, #1
 227              	.LVL17:
 228 0034 E4B2     		uxtb	r4, r4
 229              	.LVL18:
 230              	.L16:
 106:main.c        ****     {
 231              		.loc 1 106 0 is_stmt 0 discriminator 1
 232 0036 072C     		cmp	r4, #7
 233 0038 F3D9     		bls	.L17
 234 003a 0026     		movs	r6, #0
 235 003c 17E0     		b	.L18
 236              	.LVL19:
 237              	.L19:
 238              	.LBE3:
 239              	.LBB4:
 113:main.c        ****                                           | (uint16)(EEPROM_ReadByte(HOLDING_REGISTER_BEGIN_EEPROM_
 240              		.loc 1 113 0 is_stmt 1 discriminator 3
 241 003e B5B2     		uxth	r5, r6
 242 0040 6800     		lsls	r0, r5, #1
 243 0042 00F20940 		addw	r0, r0, #1033
 244 0046 FFF7FEFF 		bl	EEPROM_ReadByte
ARM GAS  C:\Users\Shaunak\AppData\Local\Temp\ccLty0Bv.s 			page 11


 245              	.LVL20:
 246 004a 0002     		lsls	r0, r0, #8
 247 004c 84B2     		uxth	r4, r0
 114:main.c        ****         modbus_response_holding_registers_temp[i] = modbus_holding_registers_value[i];
 248              		.loc 1 114 0 discriminator 3
 249 004e 05F20520 		addw	r0, r5, #517
 250 0052 4000     		lsls	r0, r0, #1
 251 0054 80B2     		uxth	r0, r0
 252 0056 FFF7FEFF 		bl	EEPROM_ReadByte
 253              	.LVL21:
 113:main.c        ****                                           | (uint16)(EEPROM_ReadByte(HOLDING_REGISTER_BEGIN_EEPROM_
 254              		.loc 1 113 0 discriminator 3
 255 005a 2043     		orrs	r0, r0, r4
 256 005c 80B2     		uxth	r0, r0
 257 005e 174B     		ldr	r3, .L23+16
 258 0060 23F81600 		strh	r0, [r3, r6, lsl #1]	@ movhi
 115:main.c        ****     }
 259              		.loc 1 115 0 discriminator 3
 260 0064 164B     		ldr	r3, .L23+20
 261 0066 23F81600 		strh	r0, [r3, r6, lsl #1]	@ movhi
 111:main.c        ****     {
 262              		.loc 1 111 0 discriminator 3
 263 006a 0136     		adds	r6, r6, #1
 264              	.LVL22:
 265 006c F6B2     		uxtb	r6, r6
 266              	.LVL23:
 267              	.L18:
 111:main.c        ****     {
 268              		.loc 1 111 0 is_stmt 0 discriminator 1
 269 006e 3F2E     		cmp	r6, #63
 270 0070 E5D9     		bls	.L19
 271 0072 0026     		movs	r6, #0
 272              	.LVL24:
 273 0074 17E0     		b	.L20
 274              	.LVL25:
 275              	.L21:
 276              	.LBE4:
 277              	.LBB5:
 119:main.c        ****                                           | (uint16)(EEPROM_ReadByte(INPUT_REGISTER_BEGIN_EEPROM_AD
 278              		.loc 1 119 0 is_stmt 1 discriminator 3
 279 0076 B5B2     		uxth	r5, r6
 280 0078 6800     		lsls	r0, r5, #1
 281 007a 00F29140 		addw	r0, r0, #1169
 282 007e FFF7FEFF 		bl	EEPROM_ReadByte
 283              	.LVL26:
 284 0082 0002     		lsls	r0, r0, #8
 285 0084 84B2     		uxth	r4, r0
 120:main.c        ****         modbus_response_input_registers_temp[i] = modbus_input_registers_value[i];
 286              		.loc 1 120 0 discriminator 3
 287 0086 05F24920 		addw	r0, r5, #585
 288 008a 4000     		lsls	r0, r0, #1
 289 008c 80B2     		uxth	r0, r0
 290 008e FFF7FEFF 		bl	EEPROM_ReadByte
 291              	.LVL27:
 119:main.c        ****                                           | (uint16)(EEPROM_ReadByte(INPUT_REGISTER_BEGIN_EEPROM_AD
 292              		.loc 1 119 0 discriminator 3
 293 0092 2043     		orrs	r0, r0, r4
ARM GAS  C:\Users\Shaunak\AppData\Local\Temp\ccLty0Bv.s 			page 12


 294 0094 80B2     		uxth	r0, r0
 295 0096 0B4B     		ldr	r3, .L23+24
 296 0098 23F81600 		strh	r0, [r3, r6, lsl #1]	@ movhi
 121:main.c        ****     }
 297              		.loc 1 121 0 discriminator 3
 298 009c 0A4B     		ldr	r3, .L23+28
 299 009e 23F81600 		strh	r0, [r3, r6, lsl #1]	@ movhi
 117:main.c        ****     {
 300              		.loc 1 117 0 discriminator 3
 301 00a2 0136     		adds	r6, r6, #1
 302              	.LVL28:
 303 00a4 F6B2     		uxtb	r6, r6
 304              	.LVL29:
 305              	.L20:
 117:main.c        ****     {
 306              		.loc 1 117 0 is_stmt 0 discriminator 1
 307 00a6 3F2E     		cmp	r6, #63
 308 00a8 E5D9     		bls	.L21
 309              	.LBE5:
 123:main.c        **** void update_eeprom(uint8_t parameter)
 310              		.loc 1 123 0 is_stmt 1
 311 00aa 70BD     		pop	{r4, r5, r6, pc}
 312              	.LVL30:
 313              	.L24:
 314              		.align	2
 315              	.L23:
 316 00ac 00000000 		.word	modbus_coil_value
 317 00b0 00000000 		.word	modbus_response_coil_temp
 318 00b4 00000000 		.word	modbus_discrete_input_value
 319 00b8 00000000 		.word	modbus_response_discrete_input_temp
 320 00bc 00000000 		.word	modbus_holding_registers_value
 321 00c0 00000000 		.word	modbus_response_holding_registers_temp
 322 00c4 00000000 		.word	modbus_input_registers_value
 323 00c8 00000000 		.word	modbus_response_input_registers_temp
 324              		.cfi_endproc
 325              	.LFE65:
 326              		.size	read_eeprom, .-read_eeprom
 327              		.section	.text.update_eeprom,"ax",%progbits
 328              		.align	2
 329              		.global	update_eeprom
 330              		.thumb
 331              		.thumb_func
 332              		.type	update_eeprom, %function
 333              	update_eeprom:
 334              	.LFB66:
 125:main.c        ****     switch(parameter)
 335              		.loc 1 125 0
 336              		.cfi_startproc
 337              		@ args = 0, pretend = 0, frame = 0
 338              		@ frame_needed = 0, uses_anonymous_args = 0
 339              	.LVL31:
 340 0000 70B5     		push	{r4, r5, r6, lr}
 341              		.cfi_def_cfa_offset 16
 342              		.cfi_offset 4, -16
 343              		.cfi_offset 5, -12
 344              		.cfi_offset 6, -8
 345              		.cfi_offset 14, -4
ARM GAS  C:\Users\Shaunak\AppData\Local\Temp\ccLty0Bv.s 			page 13


 126:main.c        ****     {
 346              		.loc 1 126 0
 347 0002 0328     		cmp	r0, #3
 348 0004 58D8     		bhi	.L25
 349 0006 DFE800F0 		tbb	[pc, r0]
 350              	.L28:
 351 000a 0D       		.byte	(.L36-.L28)/2
 352 000b 1C       		.byte	(.L37-.L28)/2
 353 000c 54       		.byte	(.L38-.L28)/2
 354 000d 38       		.byte	(.L39-.L28)/2
 355              	.LVL32:
 356              		.p2align 1
 357              	.L32:
 358              	.LBB6:
 131:main.c        ****                 EEPROM_WriteByte(modbus_coil_value[i], COIL_BEGIN_EEPROM_ADDRESS + i);
 359              		.loc 1 131 0 discriminator 3
 360 000e 2B4B     		ldr	r3, .L41
 361 0010 185D     		ldrb	r0, [r3, r4]	@ zero_extendqisi2
 362 0012 2B4B     		ldr	r3, .L41+4
 363 0014 1855     		strb	r0, [r3, r4]
 132:main.c        ****             }
 364              		.loc 1 132 0 discriminator 3
 365 0016 04F20141 		addw	r1, r4, #1025
 366 001a FFF7FEFF 		bl	EEPROM_WriteByte
 367              	.LVL33:
 129:main.c        ****             {
 368              		.loc 1 129 0 discriminator 3
 369 001e 0134     		adds	r4, r4, #1
 370              	.LVL34:
 371 0020 E4B2     		uxtb	r4, r4
 372              	.LVL35:
 373 0022 00E0     		b	.L27
 374              	.LVL36:
 375              	.L36:
 376              	.LBE6:
 126:main.c        ****     {
 377              		.loc 1 126 0
 378 0024 0024     		movs	r4, #0
 379              	.LVL37:
 380              	.L27:
 381              	.LBB7:
 129:main.c        ****             {
 382              		.loc 1 129 0 discriminator 1
 383 0026 072C     		cmp	r4, #7
 384 0028 F1D9     		bls	.L32
 385 002a 70BD     		pop	{r4, r5, r6, pc}
 386              	.LVL38:
 387              	.L33:
 388              	.LBE7:
 389              	.LBB8:
 138:main.c        ****                 EEPROM_WriteByte(modbus_discrete_input_value[i], DISCRETE_INPUT_BEGIN_EEPROM_ADDRES
 390              		.loc 1 138 0 discriminator 3
 391 002c 254B     		ldr	r3, .L41+8
 392 002e 185D     		ldrb	r0, [r3, r4]	@ zero_extendqisi2
 393 0030 254B     		ldr	r3, .L41+12
 394 0032 1855     		strb	r0, [r3, r4]
 139:main.c        ****             }
ARM GAS  C:\Users\Shaunak\AppData\Local\Temp\ccLty0Bv.s 			page 14


 395              		.loc 1 139 0 discriminator 3
 396 0034 04F28941 		addw	r1, r4, #1161
 397 0038 FFF7FEFF 		bl	EEPROM_WriteByte
 398              	.LVL39:
 136:main.c        ****             {
 399              		.loc 1 136 0 discriminator 3
 400 003c 0134     		adds	r4, r4, #1
 401              	.LVL40:
 402 003e E4B2     		uxtb	r4, r4
 403              	.LVL41:
 404 0040 00E0     		b	.L29
 405              	.LVL42:
 406              	.L37:
 407              	.LBE8:
 126:main.c        ****     {
 408              		.loc 1 126 0
 409 0042 0024     		movs	r4, #0
 410              	.LVL43:
 411              	.L29:
 412              	.LBB9:
 136:main.c        ****             {
 413              		.loc 1 136 0 discriminator 1
 414 0044 072C     		cmp	r4, #7
 415 0046 F1D9     		bls	.L33
 416 0048 70BD     		pop	{r4, r5, r6, pc}
 417              	.LVL44:
 418              	.L34:
 419              	.LBE9:
 420              	.LBB10:
 145:main.c        ****                 EEPROM_WriteByte((uint8_t)(modbus_holding_registers_value[i] >> 8), HOLDING_REGISTE
 421              		.loc 1 145 0 discriminator 3
 422 004a 204B     		ldr	r3, .L41+16
 423 004c 33F81400 		ldrh	r0, [r3, r4, lsl #1]
 424 0050 1F4E     		ldr	r6, .L41+20
 425 0052 26F81400 		strh	r0, [r6, r4, lsl #1]	@ movhi
 146:main.c        ****                 EEPROM_WriteByte((uint8_t)(modbus_holding_registers_value[i]) & 0xFF, HOLDING_REGIS
 426              		.loc 1 146 0 discriminator 3
 427 0056 A5B2     		uxth	r5, r4
 428 0058 6900     		lsls	r1, r5, #1
 429 005a 01F20941 		addw	r1, r1, #1033
 430 005e 000A     		lsrs	r0, r0, #8
 431 0060 FFF7FEFF 		bl	EEPROM_WriteByte
 432              	.LVL45:
 147:main.c        ****             }
 433              		.loc 1 147 0 discriminator 3
 434 0064 05F20521 		addw	r1, r5, #517
 435 0068 4900     		lsls	r1, r1, #1
 436 006a 89B2     		uxth	r1, r1
 437 006c 16F81400 		ldrb	r0, [r6, r4, lsl #1]	@ zero_extendqisi2
 438 0070 FFF7FEFF 		bl	EEPROM_WriteByte
 439              	.LVL46:
 143:main.c        ****             {
 440              		.loc 1 143 0 discriminator 3
 441 0074 0134     		adds	r4, r4, #1
 442              	.LVL47:
 443 0076 E4B2     		uxtb	r4, r4
 444              	.LVL48:
ARM GAS  C:\Users\Shaunak\AppData\Local\Temp\ccLty0Bv.s 			page 15


 445 0078 00E0     		b	.L31
 446              	.LVL49:
 447              	.L39:
 448              	.LBE10:
 126:main.c        ****     {
 449              		.loc 1 126 0
 450 007a 0024     		movs	r4, #0
 451              	.LVL50:
 452              	.L31:
 453              	.LBB11:
 143:main.c        ****             {
 454              		.loc 1 143 0 discriminator 1
 455 007c 3F2C     		cmp	r4, #63
 456 007e E4D9     		bls	.L34
 457 0080 70BD     		pop	{r4, r5, r6, pc}
 458              	.LVL51:
 459              	.L35:
 460              	.LBE11:
 461              	.LBB12:
 153:main.c        ****                 EEPROM_WriteByte((uint8_t)(modbus_input_registers_value[i] >> 8), INPUT_REGISTER_BE
 462              		.loc 1 153 0 discriminator 3
 463 0082 144B     		ldr	r3, .L41+24
 464 0084 33F81400 		ldrh	r0, [r3, r4, lsl #1]
 465 0088 134E     		ldr	r6, .L41+28
 466 008a 26F81400 		strh	r0, [r6, r4, lsl #1]	@ movhi
 154:main.c        ****                 EEPROM_WriteByte((uint8_t)(modbus_input_registers_value[i] & 0xFF), INPUT_REGISTER_
 467              		.loc 1 154 0 discriminator 3
 468 008e A5B2     		uxth	r5, r4
 469 0090 6900     		lsls	r1, r5, #1
 470 0092 01F29141 		addw	r1, r1, #1169
 471 0096 000A     		lsrs	r0, r0, #8
 472 0098 FFF7FEFF 		bl	EEPROM_WriteByte
 473              	.LVL52:
 155:main.c        ****             }
 474              		.loc 1 155 0 discriminator 3
 475 009c 05F24921 		addw	r1, r5, #585
 476 00a0 4900     		lsls	r1, r1, #1
 477 00a2 89B2     		uxth	r1, r1
 478 00a4 16F81400 		ldrb	r0, [r6, r4, lsl #1]	@ zero_extendqisi2
 479 00a8 FFF7FEFF 		bl	EEPROM_WriteByte
 480              	.LVL53:
 151:main.c        ****             {
 481              		.loc 1 151 0 discriminator 3
 482 00ac 0134     		adds	r4, r4, #1
 483              	.LVL54:
 484 00ae E4B2     		uxtb	r4, r4
 485              	.LVL55:
 486 00b0 00E0     		b	.L30
 487              	.LVL56:
 488              	.L38:
 489              	.LBE12:
 126:main.c        ****     {
 490              		.loc 1 126 0
 491 00b2 0024     		movs	r4, #0
 492              	.LVL57:
 493              	.L30:
 494              	.LBB13:
ARM GAS  C:\Users\Shaunak\AppData\Local\Temp\ccLty0Bv.s 			page 16


 151:main.c        ****             {
 495              		.loc 1 151 0 discriminator 1
 496 00b4 3F2C     		cmp	r4, #63
 497 00b6 E4D9     		bls	.L35
 498              	.LVL58:
 499              	.L25:
 500 00b8 70BD     		pop	{r4, r5, r6, pc}
 501              	.L42:
 502 00ba 00BF     		.align	2
 503              	.L41:
 504 00bc 00000000 		.word	modbus_response_coil_temp
 505 00c0 00000000 		.word	modbus_coil_value
 506 00c4 00000000 		.word	modbus_response_discrete_input_temp
 507 00c8 00000000 		.word	modbus_discrete_input_value
 508 00cc 00000000 		.word	modbus_response_holding_registers_temp
 509 00d0 00000000 		.word	modbus_holding_registers_value
 510 00d4 00000000 		.word	modbus_response_input_registers_temp
 511 00d8 00000000 		.word	modbus_input_registers_value
 512              	.LBE13:
 513              		.cfi_endproc
 514              	.LFE66:
 515              		.size	update_eeprom, .-update_eeprom
 516              		.section	.text.initialize_eeprom,"ax",%progbits
 517              		.align	2
 518              		.global	initialize_eeprom
 519              		.thumb
 520              		.thumb_func
 521              		.type	initialize_eeprom, %function
 522              	initialize_eeprom:
 523              	.LFB64:
  73:main.c        ****     for(uint8 i = 0; i < COIL_BYTES; i++)
 524              		.loc 1 73 0
 525              		.cfi_startproc
 526              		@ args = 0, pretend = 0, frame = 0
 527              		@ frame_needed = 0, uses_anonymous_args = 0
 528 0000 08B5     		push	{r3, lr}
 529              		.cfi_def_cfa_offset 8
 530              		.cfi_offset 3, -8
 531              		.cfi_offset 14, -4
 532              	.LVL59:
 533              	.LBB14:
  74:main.c        ****     {
 534              		.loc 1 74 0
 535 0002 0023     		movs	r3, #0
 536 0004 06E0     		b	.L44
 537              	.LVL60:
 538              	.L45:
  76:main.c        ****         modbus_response_coil_temp[i] = modbus_coil_value[i];
 539              		.loc 1 76 0 discriminator 3
 540 0006 FF22     		movs	r2, #255
 541 0008 1D49     		ldr	r1, .L53
 542 000a CA54     		strb	r2, [r1, r3]
  77:main.c        ****     }    
 543              		.loc 1 77 0 discriminator 3
 544 000c 1D49     		ldr	r1, .L53+4
 545 000e CA54     		strb	r2, [r1, r3]
  74:main.c        ****     {
ARM GAS  C:\Users\Shaunak\AppData\Local\Temp\ccLty0Bv.s 			page 17


 546              		.loc 1 74 0 discriminator 3
 547 0010 0133     		adds	r3, r3, #1
 548              	.LVL61:
 549 0012 DBB2     		uxtb	r3, r3
 550              	.LVL62:
 551              	.L44:
  74:main.c        ****     {
 552              		.loc 1 74 0 is_stmt 0 discriminator 1
 553 0014 072B     		cmp	r3, #7
 554 0016 F6D9     		bls	.L45
 555              	.LBE14:
  79:main.c        ****     for(uint8 i = 0; i < DISCRETE_INPUT_BYTES; i++)
 556              		.loc 1 79 0 is_stmt 1
 557 0018 0020     		movs	r0, #0
 558 001a FFF7FEFF 		bl	update_eeprom
 559              	.LVL63:
 560              	.LBB15:
  80:main.c        ****     {
 561              		.loc 1 80 0
 562 001e 0023     		movs	r3, #0
 563 0020 06E0     		b	.L46
 564              	.LVL64:
 565              	.L47:
  82:main.c        ****         modbus_response_discrete_input_temp[i] = modbus_discrete_input_value[i];
 566              		.loc 1 82 0 discriminator 3
 567 0022 FF22     		movs	r2, #255
 568 0024 1849     		ldr	r1, .L53+8
 569 0026 CA54     		strb	r2, [r1, r3]
  83:main.c        ****     }
 570              		.loc 1 83 0 discriminator 3
 571 0028 1849     		ldr	r1, .L53+12
 572 002a CA54     		strb	r2, [r1, r3]
  80:main.c        ****     {
 573              		.loc 1 80 0 discriminator 3
 574 002c 0133     		adds	r3, r3, #1
 575              	.LVL65:
 576 002e DBB2     		uxtb	r3, r3
 577              	.LVL66:
 578              	.L46:
  80:main.c        ****     {
 579              		.loc 1 80 0 is_stmt 0 discriminator 1
 580 0030 072B     		cmp	r3, #7
 581 0032 F6D9     		bls	.L47
 582              	.LBE15:
  85:main.c        ****     for(uint8 i = 0; i < NUMBER_OF_HOLDING_REGISTERS; i++)
 583              		.loc 1 85 0 is_stmt 1
 584 0034 0120     		movs	r0, #1
 585 0036 FFF7FEFF 		bl	update_eeprom
 586              	.LVL67:
 587              	.LBB16:
  86:main.c        ****     {   
 588              		.loc 1 86 0
 589 003a 0023     		movs	r3, #0
 590 003c 09E0     		b	.L48
 591              	.LVL68:
 592              	.L49:
  88:main.c        ****         modbus_response_holding_registers_temp[i] = modbus_holding_registers_value[i];
ARM GAS  C:\Users\Shaunak\AppData\Local\Temp\ccLty0Bv.s 			page 18


 593              		.loc 1 88 0 discriminator 3
 594 003e 4FF6FF72 		movw	r2, #65535
 595 0042 1349     		ldr	r1, .L53+16
 596 0044 21F81320 		strh	r2, [r1, r3, lsl #1]	@ movhi
  89:main.c        ****     }
 597              		.loc 1 89 0 discriminator 3
 598 0048 1249     		ldr	r1, .L53+20
 599 004a 21F81320 		strh	r2, [r1, r3, lsl #1]	@ movhi
  86:main.c        ****     {   
 600              		.loc 1 86 0 discriminator 3
 601 004e 0133     		adds	r3, r3, #1
 602              	.LVL69:
 603 0050 DBB2     		uxtb	r3, r3
 604              	.LVL70:
 605              	.L48:
  86:main.c        ****     {   
 606              		.loc 1 86 0 is_stmt 0 discriminator 1
 607 0052 3F2B     		cmp	r3, #63
 608 0054 F3D9     		bls	.L49
 609              	.LBE16:
  91:main.c        ****     for(uint8 i = 0; i < NUMBER_OF_INPUT_REGISTERS; i++)
 610              		.loc 1 91 0 is_stmt 1
 611 0056 0320     		movs	r0, #3
 612 0058 FFF7FEFF 		bl	update_eeprom
 613              	.LVL71:
 614              	.LBB17:
  92:main.c        ****     {
 615              		.loc 1 92 0
 616 005c 0023     		movs	r3, #0
 617 005e 09E0     		b	.L50
 618              	.LVL72:
 619              	.L51:
  94:main.c        ****         modbus_response_input_registers_temp[i] =  modbus_input_registers_value[i];
 620              		.loc 1 94 0 discriminator 3
 621 0060 4AF65522 		movw	r2, #43605
 622 0064 0C49     		ldr	r1, .L53+24
 623 0066 21F81320 		strh	r2, [r1, r3, lsl #1]	@ movhi
  95:main.c        ****     }
 624              		.loc 1 95 0 discriminator 3
 625 006a 0C49     		ldr	r1, .L53+28
 626 006c 21F81320 		strh	r2, [r1, r3, lsl #1]	@ movhi
  92:main.c        ****     {
 627              		.loc 1 92 0 discriminator 3
 628 0070 0133     		adds	r3, r3, #1
 629              	.LVL73:
 630 0072 DBB2     		uxtb	r3, r3
 631              	.LVL74:
 632              	.L50:
  92:main.c        ****     {
 633              		.loc 1 92 0 is_stmt 0 discriminator 1
 634 0074 3F2B     		cmp	r3, #63
 635 0076 F3D9     		bls	.L51
 636              	.LBE17:
  97:main.c        **** }
 637              		.loc 1 97 0 is_stmt 1
 638 0078 0220     		movs	r0, #2
 639 007a FFF7FEFF 		bl	update_eeprom
ARM GAS  C:\Users\Shaunak\AppData\Local\Temp\ccLty0Bv.s 			page 19


 640              	.LVL75:
 641 007e 08BD     		pop	{r3, pc}
 642              	.L54:
 643              		.align	2
 644              	.L53:
 645 0080 00000000 		.word	modbus_coil_value
 646 0084 00000000 		.word	modbus_response_coil_temp
 647 0088 00000000 		.word	modbus_discrete_input_value
 648 008c 00000000 		.word	modbus_response_discrete_input_temp
 649 0090 00000000 		.word	modbus_holding_registers_value
 650 0094 00000000 		.word	modbus_response_holding_registers_temp
 651 0098 00000000 		.word	modbus_input_registers_value
 652 009c 00000000 		.word	modbus_response_input_registers_temp
 653              		.cfi_endproc
 654              	.LFE64:
 655              		.size	initialize_eeprom, .-initialize_eeprom
 656              		.section	.text.system_initialize,"ax",%progbits
 657              		.align	2
 658              		.global	system_initialize
 659              		.thumb
 660              		.thumb_func
 661              		.type	system_initialize, %function
 662              	system_initialize:
 663              	.LFB67:
 164:main.c        ****     CyGlobalIntEnable; /* Enable global interrupts. */
 664              		.loc 1 164 0
 665              		.cfi_startproc
 666              		@ args = 0, pretend = 0, frame = 0
 667              		@ frame_needed = 0, uses_anonymous_args = 0
 668 0000 08B5     		push	{r3, lr}
 669              		.cfi_def_cfa_offset 8
 670              		.cfi_offset 3, -8
 671              		.cfi_offset 14, -4
 165:main.c        ****     EEPROM_Start();
 672              		.loc 1 165 0
 673              		.syntax unified
 674              	@ 165 "main.c" 1
 675 0002 62B6     		CPSIE   i
 676              	@ 0 "" 2
 166:main.c        ****     CySysTickStart();  /* Start the systick */
 677              		.loc 1 166 0
 678              		.thumb
 679              		.syntax unified
 680 0004 FFF7FEFF 		bl	EEPROM_Start
 681              	.LVL76:
 167:main.c        ****     CySysTickSetCallback(0, MySysTickHandler);  /* Add the Systick callback */
 682              		.loc 1 167 0
 683 0008 FFF7FEFF 		bl	CySysTickStart
 684              	.LVL77:
 168:main.c        ****     SysTick_value = 0;
 685              		.loc 1 168 0
 686 000c 1049     		ldr	r1, .L59
 687 000e 0020     		movs	r0, #0
 688 0010 FFF7FEFF 		bl	CySysTickSetCallback
 689              	.LVL78:
 169:main.c        ****     uint8 EEPROM_PowerUp_flag;   
 690              		.loc 1 169 0
ARM GAS  C:\Users\Shaunak\AppData\Local\Temp\ccLty0Bv.s 			page 20


 691 0014 0022     		movs	r2, #0
 692 0016 0F4B     		ldr	r3, .L59+4
 693 0018 1A60     		str	r2, [r3]
 171:main.c        ****     if(EEPROM_PowerUp_flag == 0)
 694              		.loc 1 171 0
 695 001a 4FF48060 		mov	r0, #1024
 696 001e FFF7FEFF 		bl	EEPROM_ReadByte
 697              	.LVL79:
 172:main.c        ****     {
 698              		.loc 1 172 0
 699 0022 50B9     		cbnz	r0, .L56
 174:main.c        ****         initialize_eeprom();
 700              		.loc 1 174 0
 701 0024 0120     		movs	r0, #1
 702              	.LVL80:
 703 0026 FFF7FEFF 		bl	Status_LED_Write
 704              	.LVL81:
 175:main.c        ****         EEPROM_PowerUp_flag = 1;
 705              		.loc 1 175 0
 706 002a FFF7FEFF 		bl	initialize_eeprom
 707              	.LVL82:
 177:main.c        ****     }
 708              		.loc 1 177 0
 709 002e 4FF48061 		mov	r1, #1024
 710 0032 0120     		movs	r0, #1
 711 0034 FFF7FEFF 		bl	EEPROM_WriteByte
 712              	.LVL83:
 713 0038 02E0     		b	.L57
 714              	.LVL84:
 715              	.L56:
 180:main.c        ****     read_eeprom();   
 716              		.loc 1 180 0
 717 003a 0020     		movs	r0, #0
 718              	.LVL85:
 719 003c FFF7FEFF 		bl	Status_LED_Write
 720              	.LVL86:
 721              	.L57:
 181:main.c        ****     Modbus_RTU_Over_UART_Start();
 722              		.loc 1 181 0
 723 0040 FFF7FEFF 		bl	read_eeprom
 724              	.LVL87:
 182:main.c        ****     ISR_MBRTU_UART_Rx_StartEx(ISRModbusRTUOverUARTRxHandler);                                    //
 725              		.loc 1 182 0
 726 0044 FFF7FEFF 		bl	Modbus_RTU_Over_UART_Start
 727              	.LVL88:
 183:main.c        ****         
 728              		.loc 1 183 0
 729 0048 0348     		ldr	r0, .L59+8
 730 004a FFF7FEFF 		bl	ISR_MBRTU_UART_Rx_StartEx
 731              	.LVL89:
 732 004e 08BD     		pop	{r3, pc}
 733              	.L60:
 734              		.align	2
 735              	.L59:
 736 0050 00000000 		.word	MySysTickHandler
 737 0054 00000000 		.word	SysTick_value
 738 0058 00000000 		.word	ISRModbusRTUOverUARTRxHandler
ARM GAS  C:\Users\Shaunak\AppData\Local\Temp\ccLty0Bv.s 			page 21


 739              		.cfi_endproc
 740              	.LFE67:
 741              		.size	system_initialize, .-system_initialize
 742              		.section	.text.main,"ax",%progbits
 743              		.align	2
 744              		.global	main
 745              		.thumb
 746              		.thumb_func
 747              		.type	main, %function
 748              	main:
 749              	.LFB68:
 187:main.c        ****     system_initialize();
 750              		.loc 1 187 0
 751              		.cfi_startproc
 752              		@ args = 0, pretend = 0, frame = 0
 753              		@ frame_needed = 0, uses_anonymous_args = 0
 754 0000 10B5     		push	{r4, lr}
 755              		.cfi_def_cfa_offset 8
 756              		.cfi_offset 4, -8
 757              		.cfi_offset 14, -4
 188:main.c        ****     while(1)
 758              		.loc 1 188 0
 759 0002 FFF7FEFF 		bl	system_initialize
 760              	.LVL90:
 761              	.L63:
 191:main.c        ****         {            
 762              		.loc 1 191 0
 763 0006 634B     		ldr	r3, .L94
 764 0008 1B78     		ldrb	r3, [r3]	@ zero_extendqisi2
 765 000a 022B     		cmp	r3, #2
 766 000c FBD1     		bne	.L63
 767 000e 06E0     		b	.L92
 768              	.LVL91:
 769              	.L64:
 770              	.LBB18:
 195:main.c        ****             }
 771              		.loc 1 195 0 discriminator 3
 772 0010 614A     		ldr	r2, .L94+4
 773 0012 D15C     		ldrb	r1, [r2, r3]	@ zero_extendqisi2
 774 0014 614A     		ldr	r2, .L94+8
 775 0016 D154     		strb	r1, [r2, r3]
 193:main.c        ****             {
 776              		.loc 1 193 0 discriminator 3
 777 0018 0133     		adds	r3, r3, #1
 778              	.LVL92:
 779 001a DBB2     		uxtb	r3, r3
 780              	.LVL93:
 781 001c 00E0     		b	.L62
 782              	.LVL94:
 783              	.L92:
 784              	.LBE18:
 785 001e 0023     		movs	r3, #0
 786              	.L62:
 787              	.LVL95:
 788              	.LBB19:
 193:main.c        ****             {
 789              		.loc 1 193 0 is_stmt 0 discriminator 1
ARM GAS  C:\Users\Shaunak\AppData\Local\Temp\ccLty0Bv.s 			page 22


 790 0020 5C4A     		ldr	r2, .L94
 791 0022 5278     		ldrb	r2, [r2, #1]	@ zero_extendqisi2
 792 0024 9342     		cmp	r3, r2
 793 0026 F3D9     		bls	.L64
 794              	.LBE19:
 197:main.c        ****             {
 795              		.loc 1 197 0 is_stmt 1
 796 0028 5C4B     		ldr	r3, .L94+8
 797              	.LVL96:
 798 002a 1B78     		ldrb	r3, [r3]	@ zero_extendqisi2
 799 002c 012B     		cmp	r3, #1
 800 002e 40F0AB80 		bne	.L65
 199:main.c        ****                 {
 801              		.loc 1 199 0
 802 0032 5A4B     		ldr	r3, .L94+8
 803 0034 5B78     		ldrb	r3, [r3, #1]	@ zero_extendqisi2
 804 0036 013B     		subs	r3, r3, #1
 805 0038 0F2B     		cmp	r3, #15
 806 003a 00F2A580 		bhi	.L65
 807 003e DFE803F0 		tbb	[pc, r3]
 808              	.L67:
 809 0042 08       		.byte	(.L66-.L67)/2
 810 0043 1A       		.byte	(.L68-.L67)/2
 811 0044 2C       		.byte	(.L69-.L67)/2
 812 0045 3E       		.byte	(.L70-.L67)/2
 813 0046 50       		.byte	(.L71-.L67)/2
 814 0047 65       		.byte	(.L72-.L67)/2
 815 0048 A3       		.byte	(.L65-.L67)/2
 816 0049 A3       		.byte	(.L65-.L67)/2
 817 004a A3       		.byte	(.L65-.L67)/2
 818 004b A3       		.byte	(.L65-.L67)/2
 819 004c A3       		.byte	(.L65-.L67)/2
 820 004d A3       		.byte	(.L65-.L67)/2
 821 004e A3       		.byte	(.L65-.L67)/2
 822 004f A3       		.byte	(.L65-.L67)/2
 823 0050 7A       		.byte	(.L73-.L67)/2
 824 0051 8F       		.byte	(.L74-.L67)/2
 825              		.p2align 1
 826              	.L66:
 202:main.c        ****                         for(uint8 i = 0; i < modbus_response_data_length; i++)
 827              		.loc 1 202 0
 828 0052 511C     		adds	r1, r2, #1
 829 0054 C9B2     		uxtb	r1, r1
 830 0056 5148     		ldr	r0, .L94+8
 831 0058 FFF7FEFF 		bl	query_response_read_coil
 832              	.LVL97:
 833              	.LBB20:
 203:main.c        ****                         {
 834              		.loc 1 203 0
 835 005c 0024     		movs	r4, #0
 836 005e 05E0     		b	.L75
 837              	.LVL98:
 838              	.L76:
 205:main.c        ****                         }
 839              		.loc 1 205 0 discriminator 3
 840 0060 4F4B     		ldr	r3, .L94+12
 841 0062 185D     		ldrb	r0, [r3, r4]	@ zero_extendqisi2
ARM GAS  C:\Users\Shaunak\AppData\Local\Temp\ccLty0Bv.s 			page 23


 842 0064 FFF7FEFF 		bl	Modbus_RTU_Over_UART_PutChar
 843              	.LVL99:
 203:main.c        ****                         {
 844              		.loc 1 203 0 discriminator 3
 845 0068 0134     		adds	r4, r4, #1
 846              	.LVL100:
 847 006a E4B2     		uxtb	r4, r4
 848              	.LVL101:
 849              	.L75:
 203:main.c        ****                         {
 850              		.loc 1 203 0 is_stmt 0 discriminator 1
 851 006c 4D4B     		ldr	r3, .L94+16
 852 006e 1B78     		ldrb	r3, [r3]	@ zero_extendqisi2
 853 0070 9C42     		cmp	r4, r3
 854 0072 F5D3     		bcc	.L76
 855 0074 88E0     		b	.L65
 856              	.LVL102:
 857              	.L68:
 858              	.LBE20:
 209:main.c        ****                 
 859              		.loc 1 209 0 is_stmt 1
 860 0076 511C     		adds	r1, r2, #1
 861 0078 C9B2     		uxtb	r1, r1
 862 007a 4848     		ldr	r0, .L94+8
 863 007c FFF7FEFF 		bl	query_response_read_discrete_input
 864              	.LVL103:
 865              	.LBB21:
 211:main.c        ****                         {
 866              		.loc 1 211 0
 867 0080 0024     		movs	r4, #0
 868 0082 05E0     		b	.L77
 869              	.LVL104:
 870              	.L78:
 213:main.c        ****                         }
 871              		.loc 1 213 0 discriminator 3
 872 0084 484B     		ldr	r3, .L94+20
 873 0086 185D     		ldrb	r0, [r3, r4]	@ zero_extendqisi2
 874 0088 FFF7FEFF 		bl	Modbus_RTU_Over_UART_PutChar
 875              	.LVL105:
 211:main.c        ****                         {
 876              		.loc 1 211 0 discriminator 3
 877 008c 0134     		adds	r4, r4, #1
 878              	.LVL106:
 879 008e E4B2     		uxtb	r4, r4
 880              	.LVL107:
 881              	.L77:
 211:main.c        ****                         {
 882              		.loc 1 211 0 is_stmt 0 discriminator 1
 883 0090 444B     		ldr	r3, .L94+16
 884 0092 1B78     		ldrb	r3, [r3]	@ zero_extendqisi2
 885 0094 9C42     		cmp	r4, r3
 886 0096 F5D3     		bcc	.L78
 887 0098 76E0     		b	.L65
 888              	.LVL108:
 889              	.L69:
 890              	.LBE21:
 217:main.c        ****                         for(uint8 i = 0; i < modbus_response_data_length; i++)
ARM GAS  C:\Users\Shaunak\AppData\Local\Temp\ccLty0Bv.s 			page 24


 891              		.loc 1 217 0 is_stmt 1
 892 009a 511C     		adds	r1, r2, #1
 893 009c C9B2     		uxtb	r1, r1
 894 009e 3F48     		ldr	r0, .L94+8
 895 00a0 FFF7FEFF 		bl	query_response_read_holding_registers
 896              	.LVL109:
 897              	.LBB22:
 218:main.c        ****                         {
 898              		.loc 1 218 0
 899 00a4 0024     		movs	r4, #0
 900 00a6 05E0     		b	.L79
 901              	.LVL110:
 902              	.L80:
 220:main.c        ****                         }
 903              		.loc 1 220 0 discriminator 3
 904 00a8 404B     		ldr	r3, .L94+24
 905 00aa 185D     		ldrb	r0, [r3, r4]	@ zero_extendqisi2
 906 00ac FFF7FEFF 		bl	Modbus_RTU_Over_UART_PutChar
 907              	.LVL111:
 218:main.c        ****                         {
 908              		.loc 1 218 0 discriminator 3
 909 00b0 0134     		adds	r4, r4, #1
 910              	.LVL112:
 911 00b2 E4B2     		uxtb	r4, r4
 912              	.LVL113:
 913              	.L79:
 218:main.c        ****                         {
 914              		.loc 1 218 0 is_stmt 0 discriminator 1
 915 00b4 3B4B     		ldr	r3, .L94+16
 916 00b6 1B78     		ldrb	r3, [r3]	@ zero_extendqisi2
 917 00b8 9C42     		cmp	r4, r3
 918 00ba F5D3     		bcc	.L80
 919 00bc 64E0     		b	.L65
 920              	.LVL114:
 921              	.L70:
 922              	.LBE22:
 224:main.c        ****                         for(uint8 i = 0; i < modbus_response_data_length; i++)
 923              		.loc 1 224 0 is_stmt 1
 924 00be 511C     		adds	r1, r2, #1
 925 00c0 C9B2     		uxtb	r1, r1
 926 00c2 3648     		ldr	r0, .L94+8
 927 00c4 FFF7FEFF 		bl	query_response_read_input_registers
 928              	.LVL115:
 929              	.LBB23:
 225:main.c        ****                         {
 930              		.loc 1 225 0
 931 00c8 0024     		movs	r4, #0
 932 00ca 05E0     		b	.L81
 933              	.LVL116:
 934              	.L82:
 227:main.c        ****                         }
 935              		.loc 1 227 0 discriminator 3
 936 00cc 384B     		ldr	r3, .L94+28
 937 00ce 185D     		ldrb	r0, [r3, r4]	@ zero_extendqisi2
 938 00d0 FFF7FEFF 		bl	Modbus_RTU_Over_UART_PutChar
 939              	.LVL117:
 225:main.c        ****                         {
ARM GAS  C:\Users\Shaunak\AppData\Local\Temp\ccLty0Bv.s 			page 25


 940              		.loc 1 225 0 discriminator 3
 941 00d4 0134     		adds	r4, r4, #1
 942              	.LVL118:
 943 00d6 E4B2     		uxtb	r4, r4
 944              	.LVL119:
 945              	.L81:
 225:main.c        ****                         {
 946              		.loc 1 225 0 is_stmt 0 discriminator 1
 947 00d8 324B     		ldr	r3, .L94+16
 948 00da 1B78     		ldrb	r3, [r3]	@ zero_extendqisi2
 949 00dc 9C42     		cmp	r4, r3
 950 00de F5D3     		bcc	.L82
 951 00e0 52E0     		b	.L65
 952              	.LVL120:
 953              	.L71:
 954              	.LBE23:
 231:main.c        ****                         for(uint8 i = 0; i < modbus_response_data_length; i++)
 955              		.loc 1 231 0 is_stmt 1
 956 00e2 511C     		adds	r1, r2, #1
 957 00e4 C9B2     		uxtb	r1, r1
 958 00e6 2D48     		ldr	r0, .L94+8
 959 00e8 FFF7FEFF 		bl	query_response_force_single_coil
 960              	.LVL121:
 961              	.LBB24:
 232:main.c        ****                         {
 962              		.loc 1 232 0
 963 00ec 0024     		movs	r4, #0
 964 00ee 05E0     		b	.L83
 965              	.LVL122:
 966              	.L84:
 234:main.c        ****                         }
 967              		.loc 1 234 0 discriminator 3
 968 00f0 304B     		ldr	r3, .L94+32
 969 00f2 185D     		ldrb	r0, [r3, r4]	@ zero_extendqisi2
 970 00f4 FFF7FEFF 		bl	Modbus_RTU_Over_UART_PutChar
 971              	.LVL123:
 232:main.c        ****                         {
 972              		.loc 1 232 0 discriminator 3
 973 00f8 0134     		adds	r4, r4, #1
 974              	.LVL124:
 975 00fa E4B2     		uxtb	r4, r4
 976              	.LVL125:
 977              	.L83:
 232:main.c        ****                         {
 978              		.loc 1 232 0 is_stmt 0 discriminator 1
 979 00fc 294B     		ldr	r3, .L94+16
 980 00fe 1B78     		ldrb	r3, [r3]	@ zero_extendqisi2
 981 0100 9C42     		cmp	r4, r3
 982 0102 F5D3     		bcc	.L84
 983              	.LBE24:
 236:main.c        ****                         break;
 984              		.loc 1 236 0 is_stmt 1
 985 0104 0020     		movs	r0, #0
 986 0106 FFF7FEFF 		bl	update_eeprom
 987              	.LVL126:
 237:main.c        ****                     case 0x06 :
 988              		.loc 1 237 0
ARM GAS  C:\Users\Shaunak\AppData\Local\Temp\ccLty0Bv.s 			page 26


 989 010a 3DE0     		b	.L65
 990              	.LVL127:
 991              	.L72:
 239:main.c        ****                         for(uint8 i = 0; i < modbus_response_data_length; i++)
 992              		.loc 1 239 0
 993 010c 511C     		adds	r1, r2, #1
 994 010e C9B2     		uxtb	r1, r1
 995 0110 2248     		ldr	r0, .L94+8
 996 0112 FFF7FEFF 		bl	query_response_preset_single_register
 997              	.LVL128:
 998              	.LBB25:
 240:main.c        ****                         {
 999              		.loc 1 240 0
 1000 0116 0024     		movs	r4, #0
 1001 0118 05E0     		b	.L85
 1002              	.LVL129:
 1003              	.L86:
 242:main.c        ****                         }
 1004              		.loc 1 242 0 discriminator 3
 1005 011a 274B     		ldr	r3, .L94+36
 1006 011c 185D     		ldrb	r0, [r3, r4]	@ zero_extendqisi2
 1007 011e FFF7FEFF 		bl	Modbus_RTU_Over_UART_PutChar
 1008              	.LVL130:
 240:main.c        ****                         {
 1009              		.loc 1 240 0 discriminator 3
 1010 0122 0134     		adds	r4, r4, #1
 1011              	.LVL131:
 1012 0124 E4B2     		uxtb	r4, r4
 1013              	.LVL132:
 1014              	.L85:
 240:main.c        ****                         {
 1015              		.loc 1 240 0 is_stmt 0 discriminator 1
 1016 0126 1F4B     		ldr	r3, .L94+16
 1017 0128 1B78     		ldrb	r3, [r3]	@ zero_extendqisi2
 1018 012a 9C42     		cmp	r4, r3
 1019 012c F5D3     		bcc	.L86
 1020              	.LBE25:
 244:main.c        ****                         break;
 1021              		.loc 1 244 0 is_stmt 1
 1022 012e 0320     		movs	r0, #3
 1023 0130 FFF7FEFF 		bl	update_eeprom
 1024              	.LVL133:
 245:main.c        ****                     case 0x0F :
 1025              		.loc 1 245 0
 1026 0134 28E0     		b	.L65
 1027              	.LVL134:
 1028              	.L73:
 247:main.c        ****                         for(uint8 i = 0; i < modbus_response_data_length; i++)
 1029              		.loc 1 247 0
 1030 0136 511C     		adds	r1, r2, #1
 1031 0138 C9B2     		uxtb	r1, r1
 1032 013a 1848     		ldr	r0, .L94+8
 1033 013c FFF7FEFF 		bl	query_response_force_multiple_coils
 1034              	.LVL135:
 1035              	.LBB26:
 248:main.c        ****                         {
 1036              		.loc 1 248 0
ARM GAS  C:\Users\Shaunak\AppData\Local\Temp\ccLty0Bv.s 			page 27


 1037 0140 0024     		movs	r4, #0
 1038 0142 05E0     		b	.L87
 1039              	.LVL136:
 1040              	.L88:
 250:main.c        ****                         }
 1041              		.loc 1 250 0 discriminator 3
 1042 0144 1D4B     		ldr	r3, .L94+40
 1043 0146 185D     		ldrb	r0, [r3, r4]	@ zero_extendqisi2
 1044 0148 FFF7FEFF 		bl	Modbus_RTU_Over_UART_PutChar
 1045              	.LVL137:
 248:main.c        ****                         {
 1046              		.loc 1 248 0 discriminator 3
 1047 014c 0134     		adds	r4, r4, #1
 1048              	.LVL138:
 1049 014e E4B2     		uxtb	r4, r4
 1050              	.LVL139:
 1051              	.L87:
 248:main.c        ****                         {
 1052              		.loc 1 248 0 is_stmt 0 discriminator 1
 1053 0150 144B     		ldr	r3, .L94+16
 1054 0152 1B78     		ldrb	r3, [r3]	@ zero_extendqisi2
 1055 0154 9C42     		cmp	r4, r3
 1056 0156 F5D3     		bcc	.L88
 1057              	.LBE26:
 252:main.c        ****                         break;
 1058              		.loc 1 252 0 is_stmt 1
 1059 0158 0020     		movs	r0, #0
 1060 015a FFF7FEFF 		bl	update_eeprom
 1061              	.LVL140:
 253:main.c        ****                     case 0x10 :
 1062              		.loc 1 253 0
 1063 015e 13E0     		b	.L65
 1064              	.LVL141:
 1065              	.L74:
 255:main.c        ****                         for(uint8 i = 0; i < modbus_response_data_length; i++)
 1066              		.loc 1 255 0
 1067 0160 511C     		adds	r1, r2, #1
 1068 0162 C9B2     		uxtb	r1, r1
 1069 0164 0D48     		ldr	r0, .L94+8
 1070 0166 FFF7FEFF 		bl	query_response_preset_multiple_registers
 1071              	.LVL142:
 1072              	.LBB27:
 256:main.c        ****                         {
 1073              		.loc 1 256 0
 1074 016a 0024     		movs	r4, #0
 1075 016c 05E0     		b	.L89
 1076              	.LVL143:
 1077              	.L90:
 258:main.c        ****                         }
 1078              		.loc 1 258 0 discriminator 3
 1079 016e 144B     		ldr	r3, .L94+44
 1080 0170 185D     		ldrb	r0, [r3, r4]	@ zero_extendqisi2
 1081 0172 FFF7FEFF 		bl	Modbus_RTU_Over_UART_PutChar
 1082              	.LVL144:
 256:main.c        ****                         {
 1083              		.loc 1 256 0 discriminator 3
 1084 0176 0134     		adds	r4, r4, #1
ARM GAS  C:\Users\Shaunak\AppData\Local\Temp\ccLty0Bv.s 			page 28


 1085              	.LVL145:
 1086 0178 E4B2     		uxtb	r4, r4
 1087              	.LVL146:
 1088              	.L89:
 256:main.c        ****                         {
 1089              		.loc 1 256 0 is_stmt 0 discriminator 1
 1090 017a 0A4B     		ldr	r3, .L94+16
 1091 017c 1B78     		ldrb	r3, [r3]	@ zero_extendqisi2
 1092 017e 9C42     		cmp	r4, r3
 1093 0180 F5D3     		bcc	.L90
 1094              	.LBE27:
 260:main.c        ****                         break;
 1095              		.loc 1 260 0 is_stmt 1
 1096 0182 0320     		movs	r0, #3
 1097 0184 FFF7FEFF 		bl	update_eeprom
 1098              	.LVL147:
 1099              	.L65:
 266:main.c        ****             byte_count = 0;
 1100              		.loc 1 266 0
 1101 0188 024B     		ldr	r3, .L94
 1102 018a 0022     		movs	r2, #0
 1103 018c 1A70     		strb	r2, [r3]
 267:main.c        ****         }
 1104              		.loc 1 267 0
 1105 018e 5A70     		strb	r2, [r3, #1]
 1106 0190 39E7     		b	.L63
 1107              	.L95:
 1108 0192 00BF     		.align	2
 1109              	.L94:
 1110 0194 00000000 		.word	.LANCHOR0
 1111 0198 00000000 		.word	uart_data_rx
 1112 019c 00000000 		.word	modbus_received_data
 1113 01a0 00000000 		.word	modbus_response_read_coil
 1114 01a4 00000000 		.word	modbus_response_data_length
 1115 01a8 00000000 		.word	modbus_response_read_discrete_input
 1116 01ac 00000000 		.word	modbus_response_read_holding_registers
 1117 01b0 00000000 		.word	modbus_response_read_input_registers
 1118 01b4 00000000 		.word	modbus_response_force_single_coil
 1119 01b8 00000000 		.word	modbus_response_preset_single_register
 1120 01bc 00000000 		.word	modbus_response_force_multiple_coils
 1121 01c0 00000000 		.word	modbus_response_preset_multiple_registers
 1122              		.cfi_endproc
 1123              	.LFE68:
 1124              		.size	main, .-main
 1125              		.comm	rx_character,1,1
 1126              		.global	source
 1127              		.comm	SysTick_value,4,4
 1128              		.comm	uart_data_rx,64,4
 1129              		.global	fsm
 1130              		.comm	modbus_received_data,64,4
 1131              		.global	byte_count
 1132              		.bss
 1133              		.align	2
 1134              		.set	.LANCHOR0,. + 0
 1135              		.type	fsm, %object
 1136              		.size	fsm, 1
 1137              	fsm:
ARM GAS  C:\Users\Shaunak\AppData\Local\Temp\ccLty0Bv.s 			page 29


 1138 0000 00       		.space	1
 1139              		.type	byte_count, %object
 1140              		.size	byte_count, 1
 1141              	byte_count:
 1142 0001 00       		.space	1
 1143 0002 0000     		.space	2
 1144              		.type	source, %object
 1145              		.size	source, 4
 1146              	source:
 1147 0004 00000000 		.space	4
 1148              		.text
 1149              	.Letext0:
 1150              		.file 2 "c:\\program files (x86)\\cypress\\psoc creator\\4.4\\psoc creator\\import\\gnu\\arm\\5.4.
 1151              		.file 3 "c:\\program files (x86)\\cypress\\psoc creator\\4.4\\psoc creator\\import\\gnu\\arm\\5.4.
 1152              		.file 4 "Generated_Source\\PSoC5/cytypes.h"
 1153              		.file 5 "Generated_Source\\PSoC5/core_cm3.h"
 1154              		.file 6 "modbus_rtu.h"
 1155              		.file 7 "Generated_Source\\PSoC5/Modbus_RTU_Over_UART.h"
 1156              		.file 8 "Generated_Source\\PSoC5/CyLib.h"
 1157              		.file 9 "Generated_Source\\PSoC5/EEPROM.h"
 1158              		.file 10 "Generated_Source\\PSoC5/Status_LED.h"
 1159              		.file 11 "Generated_Source\\PSoC5/ISR_MBRTU_UART_Rx.h"