ARM GAS  C:\Users\Shaunak\AppData\Local\Temp\ccVo5zvX.s 			page 1


   1              		.syntax unified
   2              		.cpu cortex-m3
   3              		.fpu softvfp
   4              		.eabi_attribute 20, 1
   5              		.eabi_attribute 21, 1
   6              		.eabi_attribute 23, 3
   7              		.eabi_attribute 24, 1
   8              		.eabi_attribute 25, 1
   9              		.eabi_attribute 26, 1
  10              		.eabi_attribute 30, 1
  11              		.eabi_attribute 34, 1
  12              		.eabi_attribute 18, 4
  13              		.thumb
  14              		.syntax unified
  15              		.file	"modbus_rtu.c"
  16              		.text
  17              	.Ltext0:
  18              		.cfi_sections	.debug_frame
  19              		.section	.text.CRC16,"ax",%progbits
  20              		.align	2
  21              		.global	CRC16
  22              		.thumb
  23              		.thumb_func
  24              		.type	CRC16, %function
  25              	CRC16:
  26              	.LFB0:
  27              		.file 1 "modbus_rtu.c"
   1:modbus_rtu.c  **** /* ========================================
   2:modbus_rtu.c  ****  * File : modbus_rtu.c
   3:modbus_rtu.c  ****  * Author : EmbVerse (www.embverse.com)
   4:modbus_rtu.c  ****  * Date : August 25, 2021
   5:modbus_rtu.c  ****  * ========================================
   6:modbus_rtu.c  **** */
   7:modbus_rtu.c  **** //#include <project.h>
   8:modbus_rtu.c  **** #include "modbus_rtu.h"
   9:modbus_rtu.c  **** #include <stdint.h>
  10:modbus_rtu.c  **** 
  11:modbus_rtu.c  **** //#define PSoC5 // For the code segments that should get active only if it's PSoC5
  12:modbus_rtu.c  **** 
  13:modbus_rtu.c  **** #ifdef PSoC5
  14:modbus_rtu.c  **** #define STATUS_LED_ON Status_LED_Write(SET)
  15:modbus_rtu.c  **** #define STATUS_LED_OFF Status_LED_Write(CLEAR)
  16:modbus_rtu.c  **** #define STATUS_LED_TOGGLE Status_LED_Write(!Status_LED_Read())
  17:modbus_rtu.c  **** #endif
  18:modbus_rtu.c  **** uint8_t reverse_data(uint8_t number);
  19:modbus_rtu.c  **** uint8_t modbus_response_data_length;
  20:modbus_rtu.c  **** uint16_t modbus_holding_registers_value[NUMBER_OF_HOLDING_REGISTERS];
  21:modbus_rtu.c  **** uint8_t modbus_holding_registers_value_H[NUMBER_OF_HOLDING_REGISTERS];
  22:modbus_rtu.c  **** uint8_t modbus_holding_registers_value_L[NUMBER_OF_HOLDING_REGISTERS];
  23:modbus_rtu.c  **** uint16_t modbus_input_registers_value[NUMBER_OF_INPUT_REGISTERS];
  24:modbus_rtu.c  **** uint8_t modbus_input_registers_value_H[NUMBER_OF_INPUT_REGISTERS];
  25:modbus_rtu.c  **** uint8_t modbus_input_registers_value_L[NUMBER_OF_INPUT_REGISTERS];
  26:modbus_rtu.c  **** uint8_t modbus_discrete_input_value[DISCRETE_INPUT_BYTES + 1];
  27:modbus_rtu.c  **** uint8_t modbus_coil_value[COIL_BYTES + 1];
  28:modbus_rtu.c  **** uint8_t modbus_response_read_coil[COIL_BYTES + 5];
  29:modbus_rtu.c  **** uint8_t modbus_response_read_discrete_input[DISCRETE_INPUT_BYTES + 5];
  30:modbus_rtu.c  **** uint8_t modbus_response_read_holding_registers[(2*NUMBER_OF_HOLDING_REGISTERS) + 5];
ARM GAS  C:\Users\Shaunak\AppData\Local\Temp\ccVo5zvX.s 			page 2


  31:modbus_rtu.c  **** uint8_t modbus_response_preset_single_register[8];
  32:modbus_rtu.c  **** uint8_t modbus_response_preset_multiple_registers[8];
  33:modbus_rtu.c  **** uint8_t modbus_response_read_input_registers[(2*NUMBER_OF_INPUT_REGISTERS) + 5];
  34:modbus_rtu.c  **** uint8_t modbus_response_force_single_coil[8];
  35:modbus_rtu.c  **** uint8_t modbus_response_force_multiple_coils[8];
  36:modbus_rtu.c  **** uint8_t modbus_response_coil_temp[COIL_BYTES + 1];
  37:modbus_rtu.c  **** uint8_t modbus_response_discrete_input_temp[DISCRETE_INPUT_BYTES + 1];
  38:modbus_rtu.c  **** uint16_t modbus_response_holding_registers_temp[NUMBER_OF_HOLDING_REGISTERS];
  39:modbus_rtu.c  **** uint16_t modbus_response_input_registers_temp[NUMBER_OF_INPUT_REGISTERS];
  40:modbus_rtu.c  **** void query_response_read_coil(uint8_t *modbus_received_data, uint8_t number_of_bytes);
  41:modbus_rtu.c  **** void query_response_read_input_registers(uint8_t *modbus_received_data, uint8_t number_of_bytes);
  42:modbus_rtu.c  **** void query_response_read_discrete_input(uint8_t *modbus_received_data, uint8_t number_of_bytes);
  43:modbus_rtu.c  **** void query_response_read_holding_registers(uint8_t *modbus_received_data, uint8_t number_of_bytes);
  44:modbus_rtu.c  **** void query_response_force_single_coil(uint8_t *modbus_received_data, uint8_t number_of_bytes);
  45:modbus_rtu.c  **** void query_response_preset_single_register(uint8_t *modbus_received_data, uint8_t number_of_bytes);
  46:modbus_rtu.c  **** void query_response_preset_multiple_registers(uint8_t *modbus_received_data, uint8_t number_of_byte
  47:modbus_rtu.c  **** void query_response_force_multiple_coils(uint8_t *modbus_received_data, uint8_t number_of_bytes);
  48:modbus_rtu.c  **** unsigned short CRC16(unsigned char *puchMsg, unsigned short usDataLen);
  49:modbus_rtu.c  **** unsigned short crc16;
  50:modbus_rtu.c  **** /* Table of CRC values for high–order byte */
  51:modbus_rtu.c  **** static unsigned char auchCRCHi[] = {
  52:modbus_rtu.c  ****     0x00, 0xC1, 0x81, 0x40, 0x01, 0xC0, 0x80, 0x41, 0x01, 0xC0, 0x80, 0x41, 0x00, 0xC1, 0x81,
  53:modbus_rtu.c  ****     0x40, 0x01, 0xC0, 0x80, 0x41, 0x00, 0xC1, 0x81, 0x40, 0x00, 0xC1, 0x81, 0x40, 0x01, 0xC0,
  54:modbus_rtu.c  ****     0x80, 0x41, 0x01, 0xC0, 0x80, 0x41, 0x00, 0xC1, 0x81, 0x40, 0x00, 0xC1, 0x81, 0x40, 0x01,
  55:modbus_rtu.c  ****     0xC0, 0x80, 0x41, 0x00, 0xC1, 0x81, 0x40, 0x01, 0xC0, 0x80, 0x41, 0x01, 0xC0, 0x80, 0x41,
  56:modbus_rtu.c  ****     0x00, 0xC1, 0x81, 0x40, 0x01, 0xC0, 0x80, 0x41, 0x00, 0xC1, 0x81, 0x40, 0x00, 0xC1, 0x81,
  57:modbus_rtu.c  ****     0x40, 0x01, 0xC0, 0x80, 0x41, 0x00, 0xC1, 0x81, 0x40, 0x01, 0xC0, 0x80, 0x41, 0x01, 0xC0,
  58:modbus_rtu.c  ****     0x80, 0x41, 0x00, 0xC1, 0x81, 0x40, 0x00, 0xC1, 0x81, 0x40, 0x01, 0xC0, 0x80, 0x41, 0x01,
  59:modbus_rtu.c  ****     0xC0, 0x80, 0x41, 0x00, 0xC1, 0x81, 0x40, 0x01, 0xC0, 0x80, 0x41, 0x00, 0xC1, 0x81, 0x40,
  60:modbus_rtu.c  ****     0x00, 0xC1, 0x81, 0x40, 0x01, 0xC0, 0x80, 0x41, 0x01, 0xC0, 0x80, 0x41, 0x00, 0xC1, 0x81,
  61:modbus_rtu.c  ****     0x40, 0x00, 0xC1, 0x81, 0x40, 0x01, 0xC0, 0x80, 0x41, 0x00, 0xC1, 0x81, 0x40, 0x01, 0xC0,
  62:modbus_rtu.c  ****     0x80, 0x41, 0x01, 0xC0, 0x80, 0x41, 0x00, 0xC1, 0x81, 0x40, 0x00, 0xC1, 0x81, 0x40, 0x01,
  63:modbus_rtu.c  ****     0xC0, 0x80, 0x41, 0x01, 0xC0, 0x80, 0x41, 0x00, 0xC1, 0x81, 0x40, 0x01, 0xC0, 0x80, 0x41,
  64:modbus_rtu.c  ****     0x00, 0xC1, 0x81, 0x40, 0x00, 0xC1, 0x81, 0x40, 0x01, 0xC0, 0x80, 0x41, 0x00, 0xC1, 0x81,
  65:modbus_rtu.c  ****     0x40, 0x01, 0xC0, 0x80, 0x41, 0x01, 0xC0, 0x80, 0x41, 0x00, 0xC1, 0x81, 0x40, 0x01, 0xC0,
  66:modbus_rtu.c  ****     0x80, 0x41, 0x00, 0xC1, 0x81, 0x40, 0x00, 0xC1, 0x81, 0x40, 0x01, 0xC0, 0x80, 0x41, 0x01,
  67:modbus_rtu.c  ****     0xC0, 0x80, 0x41, 0x00, 0xC1, 0x81, 0x40, 0x00, 0xC1, 0x81, 0x40, 0x01, 0xC0, 0x80, 0x41,
  68:modbus_rtu.c  ****     0x00, 0xC1, 0x81, 0x40, 0x01, 0xC0, 0x80, 0x41, 0x01, 0xC0, 0x80, 0x41, 0x00, 0xC1, 0x81,
  69:modbus_rtu.c  ****     0x40
  70:modbus_rtu.c  **** };
  71:modbus_rtu.c  **** /* Table of CRC values for low–order byte */
  72:modbus_rtu.c  **** static unsigned char auchCRCLo[] = {
  73:modbus_rtu.c  ****     0x00, 0xC0, 0xC1, 0x01, 0xC3, 0x03, 0x02, 0xC2, 0xC6, 0x06, 0x07, 0xC7, 0x05, 0xC5, 0xC4,
  74:modbus_rtu.c  ****     0x04, 0xCC, 0x0C, 0x0D, 0xCD, 0x0F, 0xCF, 0xCE, 0x0E, 0x0A, 0xCA, 0xCB, 0x0B, 0xC9, 0x09,
  75:modbus_rtu.c  ****     0x08, 0xC8, 0xD8, 0x18, 0x19, 0xD9, 0x1B, 0xDB, 0xDA, 0x1A, 0x1E, 0xDE, 0xDF, 0x1F, 0xDD,
  76:modbus_rtu.c  ****     0x1D, 0x1C, 0xDC, 0x14, 0xD4, 0xD5, 0x15, 0xD7, 0x17, 0x16, 0xD6, 0xD2, 0x12, 0x13, 0xD3,
  77:modbus_rtu.c  ****     0x11, 0xD1, 0xD0, 0x10, 0xF0, 0x30, 0x31, 0xF1, 0x33, 0xF3, 0xF2, 0x32, 0x36, 0xF6, 0xF7,
  78:modbus_rtu.c  ****     0x37, 0xF5, 0x35, 0x34, 0xF4, 0x3C, 0xFC, 0xFD, 0x3D, 0xFF, 0x3F, 0x3E, 0xFE, 0xFA, 0x3A,
  79:modbus_rtu.c  ****     0x3B, 0xFB, 0x39, 0xF9, 0xF8, 0x38, 0x28, 0xE8, 0xE9, 0x29, 0xEB, 0x2B, 0x2A, 0xEA, 0xEE,
  80:modbus_rtu.c  ****     0x2E, 0x2F, 0xEF, 0x2D, 0xED, 0xEC, 0x2C, 0xE4, 0x24, 0x25, 0xE5, 0x27, 0xE7, 0xE6, 0x26,
  81:modbus_rtu.c  ****     0x22, 0xE2, 0xE3, 0x23, 0xE1, 0x21, 0x20, 0xE0, 0xA0, 0x60, 0x61, 0xA1, 0x63, 0xA3, 0xA2,
  82:modbus_rtu.c  ****     0x62, 0x66, 0xA6, 0xA7, 0x67, 0xA5, 0x65, 0x64, 0xA4, 0x6C, 0xAC, 0xAD, 0x6D, 0xAF, 0x6F,
  83:modbus_rtu.c  ****     0x6E, 0xAE, 0xAA, 0x6A, 0x6B, 0xAB, 0x69, 0xA9, 0xA8, 0x68, 0x78, 0xB8, 0xB9, 0x79, 0xBB,
  84:modbus_rtu.c  ****     0x7B, 0x7A, 0xBA, 0xBE, 0x7E, 0x7F, 0xBF, 0x7D, 0xBD, 0xBC, 0x7C, 0xB4, 0x74, 0x75, 0xB5,
  85:modbus_rtu.c  ****     0x77, 0xB7, 0xB6, 0x76, 0x72, 0xB2, 0xB3, 0x73, 0xB1, 0x71, 0x70, 0xB0, 0x50, 0x90, 0x91,
  86:modbus_rtu.c  ****     0x51, 0x93, 0x53, 0x52, 0x92, 0x96, 0x56, 0x57, 0x97, 0x55, 0x95, 0x94, 0x54, 0x9C, 0x5C,
  87:modbus_rtu.c  ****     0x5D, 0x9D, 0x5F, 0x9F, 0x9E, 0x5E, 0x5A, 0x9A, 0x9B, 0x5B, 0x99, 0x59, 0x58, 0x98, 0x88,
ARM GAS  C:\Users\Shaunak\AppData\Local\Temp\ccVo5zvX.s 			page 3


  88:modbus_rtu.c  ****     0x48, 0x49, 0x89, 0x4B, 0x8B, 0x8A, 0x4A, 0x4E, 0x8E, 0x8F, 0x4F, 0x8D, 0x4D, 0x4C, 0x8C,
  89:modbus_rtu.c  ****     0x44, 0x84, 0x85, 0x45, 0x87, 0x47, 0x46, 0x86, 0x82, 0x42, 0x43, 0x83, 0x41, 0x81, 0x80,
  90:modbus_rtu.c  ****     0x40
  91:modbus_rtu.c  **** };
  92:modbus_rtu.c  **** unsigned short CRC16(unsigned char *puchMsg, unsigned short usDataLen)
  93:modbus_rtu.c  **** {
  28              		.loc 1 93 0
  29              		.cfi_startproc
  30              		@ args = 0, pretend = 0, frame = 0
  31              		@ frame_needed = 0, uses_anonymous_args = 0
  32              		@ link register save eliminated.
  33              	.LVL0:
  34 0000 30B4     		push	{r4, r5}
  35              		.cfi_def_cfa_offset 8
  36              		.cfi_offset 4, -8
  37              		.cfi_offset 5, -4
  38              	.LVL1:
  94:modbus_rtu.c  ****     unsigned char uchCRCHi = 0xFF ; /* high byte of CRC initialized */
  95:modbus_rtu.c  ****     unsigned char uchCRCLo = 0xFF ; /* low byte of CRC initialized */
  39              		.loc 1 95 0
  40 0002 FF25     		movs	r5, #255
  94:modbus_rtu.c  ****     unsigned char uchCRCHi = 0xFF ; /* high byte of CRC initialized */
  41              		.loc 1 94 0
  42 0004 2C46     		mov	r4, r5
  96:modbus_rtu.c  ****     unsigned uIndex ; /* will index into CRC lookup table */
  97:modbus_rtu.c  ****     while(usDataLen--) /* pass through message buffer */
  43              		.loc 1 97 0
  44 0006 09E0     		b	.L2
  45              	.LVL2:
  46              	.L3:
  98:modbus_rtu.c  ****     {
  99:modbus_rtu.c  ****         uIndex = uchCRCHi ^ *puchMsg++ ; /* calculate the CRC */
  47              		.loc 1 99 0
  48 0008 0378     		ldrb	r3, [r0]	@ zero_extendqisi2
  49 000a 6340     		eors	r3, r3, r4
  50              	.LVL3:
 100:modbus_rtu.c  ****         uchCRCHi = uchCRCLo ^ auchCRCHi[uIndex] ;
  51              		.loc 1 100 0
  52 000c 0749     		ldr	r1, .L5
  53 000e CC5C     		ldrb	r4, [r1, r3]	@ zero_extendqisi2
  54              	.LVL4:
  55 0010 6C40     		eors	r4, r4, r5
  56              	.LVL5:
 101:modbus_rtu.c  ****         uchCRCLo = auchCRCLo[uIndex] ;
  57              		.loc 1 101 0
  58 0012 0B44     		add	r3, r3, r1
  59              	.LVL6:
  60 0014 93F80051 		ldrb	r5, [r3, #256]	@ zero_extendqisi2
  61              	.LVL7:
  97:modbus_rtu.c  ****     {
  62              		.loc 1 97 0
  63 0018 1146     		mov	r1, r2
  99:modbus_rtu.c  ****         uchCRCHi = uchCRCLo ^ auchCRCHi[uIndex] ;
  64              		.loc 1 99 0
  65 001a 0130     		adds	r0, r0, #1
  66              	.LVL8:
  67              	.L2:
ARM GAS  C:\Users\Shaunak\AppData\Local\Temp\ccVo5zvX.s 			page 4


  97:modbus_rtu.c  ****     {
  68              		.loc 1 97 0
  69 001c 4B1E     		subs	r3, r1, #1
  70 001e 9AB2     		uxth	r2, r3
  71              	.LVL9:
  72 0020 0029     		cmp	r1, #0
  73 0022 F1D1     		bne	.L3
 102:modbus_rtu.c  ****     }
 103:modbus_rtu.c  ****     return (uchCRCHi << 8 | uchCRCLo) ;
 104:modbus_rtu.c  **** }
  74              		.loc 1 104 0
  75 0024 45EA0420 		orr	r0, r5, r4, lsl #8
  76              	.LVL10:
  77 0028 30BC     		pop	{r4, r5}
  78              		.cfi_restore 5
  79              		.cfi_restore 4
  80              		.cfi_def_cfa_offset 0
  81              	.LVL11:
  82 002a 7047     		bx	lr
  83              	.L6:
  84              		.align	2
  85              	.L5:
  86 002c 00000000 		.word	.LANCHOR0
  87              		.cfi_endproc
  88              	.LFE0:
  89              		.size	CRC16, .-CRC16
  90              		.section	.text.reverse_data,"ax",%progbits
  91              		.align	2
  92              		.global	reverse_data
  93              		.thumb
  94              		.thumb_func
  95              		.type	reverse_data, %function
  96              	reverse_data:
  97              	.LFB1:
 105:modbus_rtu.c  **** uint8_t reverse_data(uint8_t number)
 106:modbus_rtu.c  **** {
  98              		.loc 1 106 0
  99              		.cfi_startproc
 100              		@ args = 0, pretend = 0, frame = 0
 101              		@ frame_needed = 0, uses_anonymous_args = 0
 102              		@ link register save eliminated.
 103              	.LVL12:
 104 0000 F0B4     		push	{r4, r5, r6, r7}
 105              		.cfi_def_cfa_offset 16
 106              		.cfi_offset 4, -16
 107              		.cfi_offset 5, -12
 108              		.cfi_offset 6, -8
 109              		.cfi_offset 7, -4
 107:modbus_rtu.c  ****     uint8_t data_array[8] = {number & 0x80, number & 0x40, number & 0x20, number & 0x10, number & 0
 110              		.loc 1 107 0
 111 0002 00F04001 		and	r1, r0, #64
 112 0006 C9B2     		uxtb	r1, r1
 113 0008 00F02002 		and	r2, r0, #32
 114 000c D2B2     		uxtb	r2, r2
 115 000e 00F01003 		and	r3, r0, #16
 116 0012 DBB2     		uxtb	r3, r3
 117 0014 00F00806 		and	r6, r0, #8
ARM GAS  C:\Users\Shaunak\AppData\Local\Temp\ccVo5zvX.s 			page 5


 118 0018 F6B2     		uxtb	r6, r6
 119 001a 00F00405 		and	r5, r0, #4
 120 001e EDB2     		uxtb	r5, r5
 121 0020 00F00204 		and	r4, r0, #2
 122 0024 E4B2     		uxtb	r4, r4
 123 0026 00F00107 		and	r7, r0, #1
 108:modbus_rtu.c  ****     number = (data_array[0] >> 7) | (data_array[1] >> 5) | (data_array[2] >> 3) | (data_array[3] >>
 124              		.loc 1 108 0
 125 002a 4909     		lsrs	r1, r1, #5
 126 002c 41EAD011 		orr	r1, r1, r0, lsr #7
 127 0030 41EAD202 		orr	r2, r1, r2, lsr #3
 128 0034 42EA5302 		orr	r2, r2, r3, lsr #1
 129 0038 42EA4603 		orr	r3, r2, r6, lsl #1
 130 003c 43EAC503 		orr	r3, r3, r5, lsl #3
 131 0040 43EA4410 		orr	r0, r3, r4, lsl #5
 132              	.LVL13:
 133 0044 40EAC710 		orr	r0, r0, r7, lsl #7
 134              	.LVL14:
 109:modbus_rtu.c  ****     return number;
 110:modbus_rtu.c  **** }
 135              		.loc 1 110 0
 136 0048 C0B2     		uxtb	r0, r0
 137 004a F0BC     		pop	{r4, r5, r6, r7}
 138              		.cfi_restore 7
 139              		.cfi_restore 6
 140              		.cfi_restore 5
 141              		.cfi_restore 4
 142              		.cfi_def_cfa_offset 0
 143 004c 7047     		bx	lr
 144              		.cfi_endproc
 145              	.LFE1:
 146              		.size	reverse_data, .-reverse_data
 147 004e 00BF     		.section	.text.query_response_read_coil,"ax",%progbits
 148              		.align	2
 149              		.global	query_response_read_coil
 150              		.thumb
 151              		.thumb_func
 152              		.type	query_response_read_coil, %function
 153              	query_response_read_coil:
 154              	.LFB2:
 111:modbus_rtu.c  **** void query_response_read_coil(uint8_t *modbus_received_data, uint8_t number_of_bytes)
 112:modbus_rtu.c  **** {
 155              		.loc 1 112 0
 156              		.cfi_startproc
 157              		@ args = 0, pretend = 0, frame = 8
 158              		@ frame_needed = 0, uses_anonymous_args = 0
 159              	.LVL15:
 160 0000 F0B5     		push	{r4, r5, r6, r7, lr}
 161              		.cfi_def_cfa_offset 20
 162              		.cfi_offset 4, -20
 163              		.cfi_offset 5, -16
 164              		.cfi_offset 6, -12
 165              		.cfi_offset 7, -8
 166              		.cfi_offset 14, -4
 167 0002 83B0     		sub	sp, sp, #12
 168              		.cfi_def_cfa_offset 32
 169 0004 0546     		mov	r5, r0
ARM GAS  C:\Users\Shaunak\AppData\Local\Temp\ccVo5zvX.s 			page 6


 170 0006 0C46     		mov	r4, r1
 113:modbus_rtu.c  ****     uint8_t modulo_coil_count_array[8] = {0x00, 0x80, 0xC0, 0xE0, 0xF0, 0xF8, 0xFC, 0xFE};
 171              		.loc 1 113 0
 172 0008 6B46     		mov	r3, sp
 173 000a 6D4A     		ldr	r2, .L24
 174 000c 1068     		ldr	r0, [r2]	@ unaligned
 175              	.LVL16:
 176 000e 5168     		ldr	r1, [r2, #4]	@ unaligned
 177              	.LVL17:
 178 0010 03C3     		stmia	r3!, {r0, r1}
 114:modbus_rtu.c  ****     crc16 = CRC16(&(*(modbus_received_data + 0)), number_of_bytes - 2);
 179              		.loc 1 114 0
 180 0012 A11E     		subs	r1, r4, #2
 181 0014 89B2     		uxth	r1, r1
 182 0016 2846     		mov	r0, r5
 183 0018 FFF7FEFF 		bl	CRC16
 184              	.LVL18:
 185 001c 694B     		ldr	r3, .L24+4
 186 001e 1880     		strh	r0, [r3]	@ movhi
 115:modbus_rtu.c  ****     if(((uint16_t)(*(modbus_received_data + number_of_bytes - 2)) == (crc16 >> 8)) && ((uint16_t)(*
 187              		.loc 1 115 0
 188 0020 A31E     		subs	r3, r4, #2
 189 0022 EB5C     		ldrb	r3, [r5, r3]	@ zero_extendqisi2
 190 0024 B3EB102F 		cmp	r3, r0, lsr #8
 191 0028 40F0C780 		bne	.L9
 192              		.loc 1 115 0 is_stmt 0 discriminator 1
 193 002c 013C     		subs	r4, r4, #1
 194 002e 2B5D     		ldrb	r3, [r5, r4]	@ zero_extendqisi2
 195 0030 C0B2     		uxtb	r0, r0
 196 0032 8342     		cmp	r3, r0
 197 0034 40F0C180 		bne	.L9
 116:modbus_rtu.c  ****     {
 117:modbus_rtu.c  ****         if((*(modbus_received_data + 0)) == MODBUS_SLAVE_ADDRESS)
 198              		.loc 1 117 0 is_stmt 1
 199 0038 2A78     		ldrb	r2, [r5]	@ zero_extendqisi2
 200 003a 012A     		cmp	r2, #1
 201 003c 40F0BD80 		bne	.L9
 202              	.LBB2:
 118:modbus_rtu.c  ****         {
 119:modbus_rtu.c  ****             uint16_t coil_count;
 120:modbus_rtu.c  ****             coil_count = ((uint16_t)(*(modbus_received_data + 4)) << 8) | ((uint16_t)(*(modbus_rece
 203              		.loc 1 120 0
 204 0040 95F804E0 		ldrb	lr, [r5, #4]	@ zero_extendqisi2
 205 0044 6B79     		ldrb	r3, [r5, #5]	@ zero_extendqisi2
 206 0046 43EA0E2E 		orr	lr, r3, lr, lsl #8
 207 004a 0FFA8EFE 		sxth	lr, lr
 208 004e 1FFA8EF7 		uxth	r7, lr
 209              	.LVL19:
 121:modbus_rtu.c  ****             uint16_t coil_start_address;
 122:modbus_rtu.c  ****             coil_start_address = (((uint16_t)(*(modbus_received_data + 2)) << 8) | ((uint16_t)(*(mo
 210              		.loc 1 122 0
 211 0052 AE78     		ldrb	r6, [r5, #2]	@ zero_extendqisi2
 212 0054 EB78     		ldrb	r3, [r5, #3]	@ zero_extendqisi2
 213 0056 43EA0626 		orr	r6, r3, r6, lsl #8
 214 005a 36B2     		sxth	r6, r6
 215 005c B3B2     		uxth	r3, r6
 216              	.LVL20:
ARM GAS  C:\Users\Shaunak\AppData\Local\Temp\ccVo5zvX.s 			page 7


 123:modbus_rtu.c  ****             if(coil_start_address >= NUMBER_OF_COILS)
 217              		.loc 1 123 0
 218 005e 3F2B     		cmp	r3, #63
 219 0060 14D9     		bls	.L11
 124:modbus_rtu.c  ****             {
 125:modbus_rtu.c  ****                 modbus_response_data_length = 5;
 220              		.loc 1 125 0
 221 0062 0522     		movs	r2, #5
 222 0064 584B     		ldr	r3, .L24+8
 223              	.LVL21:
 224 0066 1A70     		strb	r2, [r3]
 126:modbus_rtu.c  ****                 modbus_response_read_coil[0] = *(modbus_received_data + 0);
 225              		.loc 1 126 0
 226 0068 2B78     		ldrb	r3, [r5]	@ zero_extendqisi2
 227 006a 584C     		ldr	r4, .L24+12
 228 006c 2370     		strb	r3, [r4]
 127:modbus_rtu.c  ****                 modbus_response_read_coil[1] = *(modbus_received_data + 1) + 128;
 229              		.loc 1 127 0
 230 006e 6B78     		ldrb	r3, [r5, #1]	@ zero_extendqisi2
 231 0070 803B     		subs	r3, r3, #128
 232 0072 6370     		strb	r3, [r4, #1]
 128:modbus_rtu.c  ****                 modbus_response_read_coil[2] = 0x02;
 233              		.loc 1 128 0
 234 0074 0223     		movs	r3, #2
 235 0076 A370     		strb	r3, [r4, #2]
 129:modbus_rtu.c  ****                 crc16 = CRC16(&modbus_response_read_coil[0], 3); 
 236              		.loc 1 129 0
 237 0078 0321     		movs	r1, #3
 238 007a 2046     		mov	r0, r4
 239 007c FFF7FEFF 		bl	CRC16
 240              	.LVL22:
 241 0080 504B     		ldr	r3, .L24+4
 242 0082 1880     		strh	r0, [r3]	@ movhi
 130:modbus_rtu.c  ****                 modbus_response_read_coil[3] = (uint8_t)(crc16 >> 8);
 243              		.loc 1 130 0
 244 0084 030A     		lsrs	r3, r0, #8
 245 0086 E370     		strb	r3, [r4, #3]
 131:modbus_rtu.c  ****                 modbus_response_read_coil[4] = (uint8_t)(crc16 & 0x00FF);
 246              		.loc 1 131 0
 247 0088 2071     		strb	r0, [r4, #4]
 248 008a 96E0     		b	.L9
 249              	.LVL23:
 250              	.L11:
 132:modbus_rtu.c  ****             }   
 133:modbus_rtu.c  ****             else if((coil_start_address + coil_count) >= (NUMBER_OF_COILS + 1))
 251              		.loc 1 133 0
 252 008c D919     		adds	r1, r3, r7
 253 008e 4029     		cmp	r1, #64
 254 0090 13DD     		ble	.L12
 134:modbus_rtu.c  ****             {
 135:modbus_rtu.c  ****                 modbus_response_data_length = 5;
 255              		.loc 1 135 0
 256 0092 0522     		movs	r2, #5
 257 0094 4C4B     		ldr	r3, .L24+8
 258              	.LVL24:
 259 0096 1A70     		strb	r2, [r3]
 136:modbus_rtu.c  ****                 modbus_response_read_coil[0] = *(modbus_received_data + 0);
ARM GAS  C:\Users\Shaunak\AppData\Local\Temp\ccVo5zvX.s 			page 8


 260              		.loc 1 136 0
 261 0098 2B78     		ldrb	r3, [r5]	@ zero_extendqisi2
 262 009a 4C4C     		ldr	r4, .L24+12
 263 009c 2370     		strb	r3, [r4]
 137:modbus_rtu.c  ****                 modbus_response_read_coil[1] = *(modbus_received_data + 1) + 128;
 264              		.loc 1 137 0
 265 009e 6B78     		ldrb	r3, [r5, #1]	@ zero_extendqisi2
 266 00a0 803B     		subs	r3, r3, #128
 267 00a2 6370     		strb	r3, [r4, #1]
 138:modbus_rtu.c  ****                 modbus_response_read_coil[2] = 0x03;
 268              		.loc 1 138 0
 269 00a4 0321     		movs	r1, #3
 270 00a6 A170     		strb	r1, [r4, #2]
 139:modbus_rtu.c  ****                 crc16 = CRC16(&modbus_response_read_coil[0], 3); 
 271              		.loc 1 139 0
 272 00a8 2046     		mov	r0, r4
 273 00aa FFF7FEFF 		bl	CRC16
 274              	.LVL25:
 275 00ae 454B     		ldr	r3, .L24+4
 276 00b0 1880     		strh	r0, [r3]	@ movhi
 140:modbus_rtu.c  ****                 modbus_response_read_coil[3] = (uint8_t)(crc16 >> 8);
 277              		.loc 1 140 0
 278 00b2 030A     		lsrs	r3, r0, #8
 279 00b4 E370     		strb	r3, [r4, #3]
 141:modbus_rtu.c  ****                 modbus_response_read_coil[4] = (uint8_t)(crc16 & 0x00FF);
 280              		.loc 1 141 0
 281 00b6 2071     		strb	r0, [r4, #4]
 282 00b8 7FE0     		b	.L9
 283              	.LVL26:
 284              	.L12:
 285              	.LBB3:
 142:modbus_rtu.c  ****             }
 143:modbus_rtu.c  ****             else
 144:modbus_rtu.c  ****             {
 145:modbus_rtu.c  ****                 //STATUS_LED_TOGGLE;
 146:modbus_rtu.c  ****                 uint8_t modulo_coil_count = (uint8_t)coil_count % 8;
 286              		.loc 1 146 0
 287 00ba 0EF0070E 		and	lr, lr, #7
 288              	.LVL27:
 147:modbus_rtu.c  ****                 uint8_t modulo_start_address = (uint8_t)(coil_start_address % 8);
 289              		.loc 1 147 0
 290 00be 06F00706 		and	r6, r6, #7
 291              	.LVL28:
 148:modbus_rtu.c  ****                 uint8_t byte_index = (uint8_t)(coil_start_address / 8);
 292              		.loc 1 148 0
 293 00c2 C3F3C703 		ubfx	r3, r3, #3, #8
 294              	.LVL29:
 149:modbus_rtu.c  ****                 modbus_response_read_coil[0] = *(modbus_received_data + 0);
 295              		.loc 1 149 0
 296 00c6 4149     		ldr	r1, .L24+12
 297 00c8 0A70     		strb	r2, [r1]
 298              	.LVL30:
 150:modbus_rtu.c  ****                 modbus_response_read_coil[1] = *(modbus_received_data + 1);
 299              		.loc 1 150 0
 300 00ca 6A78     		ldrb	r2, [r5, #1]	@ zero_extendqisi2
 301 00cc 4A70     		strb	r2, [r1, #1]
 302              	.LVL31:
ARM GAS  C:\Users\Shaunak\AppData\Local\Temp\ccVo5zvX.s 			page 9


 151:modbus_rtu.c  ****                 uint8_t u = 0;
 152:modbus_rtu.c  ****                 for(u = 0; u < (coil_count / 8); u++)
 303              		.loc 1 152 0
 304 00ce 0024     		movs	r4, #0
 305 00d0 10E0     		b	.L13
 306              	.LVL32:
 307              	.L14:
 153:modbus_rtu.c  ****                 {
 154:modbus_rtu.c  ****                     modbus_response_read_coil[u + 3] = ((modbus_coil_value[byte_index] << modulo_st
 308              		.loc 1 154 0 discriminator 3
 309 00d2 E51C     		adds	r5, r4, #3
 310 00d4 3E49     		ldr	r1, .L24+16
 311 00d6 CA5C     		ldrb	r2, [r1, r3]	@ zero_extendqisi2
 312 00d8 02FA06F0 		lsl	r0, r2, r6
 313 00dc 0133     		adds	r3, r3, #1
 314              	.LVL33:
 315 00de C95C     		ldrb	r1, [r1, r3]	@ zero_extendqisi2
 316 00e0 C6F10802 		rsb	r2, r6, #8
 317 00e4 41FA02F2 		asr	r2, r1, r2
 318 00e8 0243     		orrs	r2, r2, r0
 319 00ea 3849     		ldr	r1, .L24+12
 320 00ec 4A55     		strb	r2, [r1, r5]
 155:modbus_rtu.c  ****                     byte_index++;
 321              		.loc 1 155 0 discriminator 3
 322 00ee DBB2     		uxtb	r3, r3
 323              	.LVL34:
 152:modbus_rtu.c  ****                 {
 324              		.loc 1 152 0 discriminator 3
 325 00f0 0134     		adds	r4, r4, #1
 326              	.LVL35:
 327 00f2 E4B2     		uxtb	r4, r4
 328              	.LVL36:
 329              	.L13:
 152:modbus_rtu.c  ****                 {
 330              		.loc 1 152 0 is_stmt 0 discriminator 1
 331 00f4 A2B2     		uxth	r2, r4
 332 00f6 B2EBD70F 		cmp	r2, r7, lsr #3
 333 00fa EAD3     		bcc	.L14
 156:modbus_rtu.c  ****                 }
 157:modbus_rtu.c  ****                 if(modulo_coil_count != 0)
 334              		.loc 1 157 0 is_stmt 1
 335 00fc BEF1000F 		cmp	lr, #0
 336 0100 39D0     		beq	.L15
 158:modbus_rtu.c  ****                 {
 159:modbus_rtu.c  ****                     modbus_response_data_length = 5 + (((coil_count - modulo_coil_count + 8) / 8));
 337              		.loc 1 159 0
 338 0102 CEEB0702 		rsb	r2, lr, r7
 339 0106 0832     		adds	r2, r2, #8
 340 0108 00D5     		bpl	.L16
 341 010a 0732     		adds	r2, r2, #7
 342              	.L16:
 343 010c D210     		asrs	r2, r2, #3
 344 010e 0532     		adds	r2, r2, #5
 345 0110 2D49     		ldr	r1, .L24+8
 346 0112 0A70     		strb	r2, [r1]
 160:modbus_rtu.c  ****                     if(u == 0)
 347              		.loc 1 160 0
ARM GAS  C:\Users\Shaunak\AppData\Local\Temp\ccVo5zvX.s 			page 10


 348 0114 94B9     		cbnz	r4, .L17
 161:modbus_rtu.c  ****                         modbus_response_read_coil[u + 3] = (((modbus_coil_value[byte_index] << modu
 349              		.loc 1 161 0
 350 0116 0334     		adds	r4, r4, #3
 351              	.LVL37:
 352 0118 2D4A     		ldr	r2, .L24+16
 353 011a D15C     		ldrb	r1, [r2, r3]	@ zero_extendqisi2
 354 011c B140     		lsls	r1, r1, r6
 355 011e 0133     		adds	r3, r3, #1
 356              	.LVL38:
 357 0120 D25C     		ldrb	r2, [r2, r3]	@ zero_extendqisi2
 358 0122 C6F10803 		rsb	r3, r6, #8
 359 0126 42FA03F3 		asr	r3, r2, r3
 360 012a 02AA     		add	r2, sp, #8
 361 012c 7244     		add	r2, r2, lr
 362 012e 12F8082C 		ldrb	r2, [r2, #-8]	@ zero_extendqisi2
 363 0132 0B43     		orrs	r3, r3, r1
 364 0134 1340     		ands	r3, r3, r2
 365 0136 254A     		ldr	r2, .L24+12
 366 0138 1355     		strb	r3, [r2, r4]
 367 013a 12E0     		b	.L18
 368              	.LVL39:
 369              	.L17:
 162:modbus_rtu.c  ****                     else
 163:modbus_rtu.c  ****                         modbus_response_read_coil[u + 3] = (((modbus_coil_value[byte_index] << modu
 370              		.loc 1 163 0
 371 013c 0334     		adds	r4, r4, #3
 372              	.LVL40:
 373 013e 244A     		ldr	r2, .L24+16
 374 0140 D15C     		ldrb	r1, [r2, r3]	@ zero_extendqisi2
 375 0142 B140     		lsls	r1, r1, r6
 376 0144 0133     		adds	r3, r3, #1
 377              	.LVL41:
 378 0146 D35C     		ldrb	r3, [r2, r3]	@ zero_extendqisi2
 379 0148 C6F10806 		rsb	r6, r6, #8
 380              	.LVL42:
 381 014c 43FA06F6 		asr	r6, r3, r6
 382 0150 02AB     		add	r3, sp, #8
 383 0152 7344     		add	r3, r3, lr
 384 0154 13F8082C 		ldrb	r2, [r3, #-8]	@ zero_extendqisi2
 385 0158 41EA0603 		orr	r3, r1, r6
 386 015c 1340     		ands	r3, r3, r2
 387 015e 1B4A     		ldr	r2, .L24+12
 388 0160 1355     		strb	r3, [r2, r4]
 389              	.L18:
 164:modbus_rtu.c  ****                     modbus_response_read_coil[2] = (uint8_t)((coil_count + 8 - modulo_coil_count)/ 
 390              		.loc 1 164 0
 391 0162 0837     		adds	r7, r7, #8
 392              	.LVL43:
 393 0164 B7EB0E07 		subs	r7, r7, lr
 394              	.LVL44:
 395 0168 00D5     		bpl	.L19
 396 016a 0737     		adds	r7, r7, #7
 397              	.L19:
 398 016c C7F3C707 		ubfx	r7, r7, #3, #8
 399 0170 164B     		ldr	r3, .L24+12
 400 0172 9F70     		strb	r7, [r3, #2]
ARM GAS  C:\Users\Shaunak\AppData\Local\Temp\ccVo5zvX.s 			page 11


 401 0174 12E0     		b	.L20
 402              	.LVL45:
 403              	.L15:
 165:modbus_rtu.c  ****                 }
 166:modbus_rtu.c  ****                 else
 167:modbus_rtu.c  ****                 {
 168:modbus_rtu.c  ****                     modbus_response_read_coil[2] = (uint8_t)((coil_count + 8 - modulo_coil_count)/ 
 404              		.loc 1 168 0
 405 0176 07F10803 		add	r3, r7, #8
 406              	.LVL46:
 407 017a B3EB0E03 		subs	r3, r3, lr
 408 017e 00D5     		bpl	.L21
 409 0180 0733     		adds	r3, r3, #7
 410              	.L21:
 411 0182 DB10     		asrs	r3, r3, #3
 412 0184 013B     		subs	r3, r3, #1
 413 0186 114A     		ldr	r2, .L24+12
 414 0188 9370     		strb	r3, [r2, #2]
 169:modbus_rtu.c  ****                     modbus_response_data_length = 5 + (((coil_count - modulo_coil_count + 8) / 8)) 
 415              		.loc 1 169 0
 416 018a CEEB0707 		rsb	r7, lr, r7
 417              	.LVL47:
 418 018e 0837     		adds	r7, r7, #8
 419 0190 00D5     		bpl	.L22
 420 0192 0737     		adds	r7, r7, #7
 421              	.L22:
 422 0194 FF10     		asrs	r7, r7, #3
 423 0196 3B1D     		adds	r3, r7, #4
 424 0198 0B4A     		ldr	r2, .L24+8
 425 019a 1370     		strb	r3, [r2]
 426              	.LVL48:
 427              	.L20:
 170:modbus_rtu.c  ****                 }
 171:modbus_rtu.c  ****                 crc16 = CRC16(&modbus_response_read_coil[0], modbus_response_data_length - 2);
 428              		.loc 1 171 0
 429 019c 0A4B     		ldr	r3, .L24+8
 430 019e 1C78     		ldrb	r4, [r3]	@ zero_extendqisi2
 431 01a0 A11E     		subs	r1, r4, #2
 432 01a2 0A4D     		ldr	r5, .L24+12
 433 01a4 89B2     		uxth	r1, r1
 434 01a6 2846     		mov	r0, r5
 435 01a8 FFF7FEFF 		bl	CRC16
 436              	.LVL49:
 437 01ac 054B     		ldr	r3, .L24+4
 438 01ae 1880     		strh	r0, [r3]	@ movhi
 172:modbus_rtu.c  ****                 modbus_response_read_coil[modbus_response_data_length - 2] = (uint8_t)(crc16 >> 8);
 439              		.loc 1 172 0
 440 01b0 A31E     		subs	r3, r4, #2
 441 01b2 020A     		lsrs	r2, r0, #8
 442 01b4 EA54     		strb	r2, [r5, r3]
 173:modbus_rtu.c  ****                 modbus_response_read_coil[modbus_response_data_length - 1] = (uint8_t)(crc16 & 0x00
 443              		.loc 1 173 0
 444 01b6 013C     		subs	r4, r4, #1
 445 01b8 2855     		strb	r0, [r5, r4]
 446              	.L9:
 447              	.LBE3:
 448              	.LBE2:
ARM GAS  C:\Users\Shaunak\AppData\Local\Temp\ccVo5zvX.s 			page 12


 174:modbus_rtu.c  ****             }
 175:modbus_rtu.c  ****         }       
 176:modbus_rtu.c  ****     }
 177:modbus_rtu.c  **** }
 449              		.loc 1 177 0
 450 01ba 03B0     		add	sp, sp, #12
 451              		.cfi_def_cfa_offset 20
 452              		@ sp needed
 453 01bc F0BD     		pop	{r4, r5, r6, r7, pc}
 454              	.L25:
 455 01be 00BF     		.align	2
 456              	.L24:
 457 01c0 00020000 		.word	.LANCHOR0+512
 458 01c4 00000000 		.word	crc16
 459 01c8 00000000 		.word	modbus_response_data_length
 460 01cc 00000000 		.word	modbus_response_read_coil
 461 01d0 00000000 		.word	modbus_coil_value
 462              		.cfi_endproc
 463              	.LFE2:
 464              		.size	query_response_read_coil, .-query_response_read_coil
 465              		.section	.text.query_response_read_discrete_input,"ax",%progbits
 466              		.align	2
 467              		.global	query_response_read_discrete_input
 468              		.thumb
 469              		.thumb_func
 470              		.type	query_response_read_discrete_input, %function
 471              	query_response_read_discrete_input:
 472              	.LFB3:
 178:modbus_rtu.c  **** void query_response_read_discrete_input(uint8_t *modbus_received_data, uint8_t number_of_bytes)
 179:modbus_rtu.c  **** {
 473              		.loc 1 179 0
 474              		.cfi_startproc
 475              		@ args = 0, pretend = 0, frame = 8
 476              		@ frame_needed = 0, uses_anonymous_args = 0
 477              	.LVL50:
 478 0000 F0B5     		push	{r4, r5, r6, r7, lr}
 479              		.cfi_def_cfa_offset 20
 480              		.cfi_offset 4, -20
 481              		.cfi_offset 5, -16
 482              		.cfi_offset 6, -12
 483              		.cfi_offset 7, -8
 484              		.cfi_offset 14, -4
 485 0002 83B0     		sub	sp, sp, #12
 486              		.cfi_def_cfa_offset 32
 487 0004 0546     		mov	r5, r0
 488 0006 0C46     		mov	r4, r1
 180:modbus_rtu.c  ****     uint8_t modulo_discrete_input_count_array[8] = {0x00, 0x80, 0xC0, 0xE0, 0xF0, 0xF8, 0xFC, 0xFE}
 489              		.loc 1 180 0
 490 0008 6B46     		mov	r3, sp
 491 000a 614A     		ldr	r2, .L38
 492 000c 1068     		ldr	r0, [r2]	@ unaligned
 493              	.LVL51:
 494 000e 5168     		ldr	r1, [r2, #4]	@ unaligned
 495              	.LVL52:
 496 0010 03C3     		stmia	r3!, {r0, r1}
 181:modbus_rtu.c  ****     crc16 = CRC16(&(*(modbus_received_data + 0)), number_of_bytes - 2);
 497              		.loc 1 181 0
ARM GAS  C:\Users\Shaunak\AppData\Local\Temp\ccVo5zvX.s 			page 13


 498 0012 A11E     		subs	r1, r4, #2
 499 0014 89B2     		uxth	r1, r1
 500 0016 2846     		mov	r0, r5
 501 0018 FFF7FEFF 		bl	CRC16
 502              	.LVL53:
 503 001c 5D4B     		ldr	r3, .L38+4
 504 001e 1880     		strh	r0, [r3]	@ movhi
 182:modbus_rtu.c  ****     if(((uint16_t)(*(modbus_received_data + number_of_bytes - 2)) == (crc16 >> 8)) && ((uint16_t)(*
 505              		.loc 1 182 0
 506 0020 A31E     		subs	r3, r4, #2
 507 0022 EB5C     		ldrb	r3, [r5, r3]	@ zero_extendqisi2
 508 0024 B3EB102F 		cmp	r3, r0, lsr #8
 509 0028 40F0AF80 		bne	.L26
 510              		.loc 1 182 0 is_stmt 0 discriminator 1
 511 002c 013C     		subs	r4, r4, #1
 512 002e 2B5D     		ldrb	r3, [r5, r4]	@ zero_extendqisi2
 513 0030 C0B2     		uxtb	r0, r0
 514 0032 8342     		cmp	r3, r0
 515 0034 40F0A980 		bne	.L26
 183:modbus_rtu.c  ****     {
 184:modbus_rtu.c  ****         if((*(modbus_received_data + 0)) == MODBUS_SLAVE_ADDRESS)
 516              		.loc 1 184 0 is_stmt 1
 517 0038 2978     		ldrb	r1, [r5]	@ zero_extendqisi2
 518 003a 0129     		cmp	r1, #1
 519 003c 40F0A580 		bne	.L26
 520              	.LBB4:
 185:modbus_rtu.c  ****         {
 186:modbus_rtu.c  ****             uint16_t discrete_input_count;
 187:modbus_rtu.c  ****             discrete_input_count = ((uint16_t)(*(modbus_received_data + 4)) << 8) | ((uint16_t)(*(m
 521              		.loc 1 187 0
 522 0040 2879     		ldrb	r0, [r5, #4]	@ zero_extendqisi2
 523 0042 6B79     		ldrb	r3, [r5, #5]	@ zero_extendqisi2
 524 0044 43EA0020 		orr	r0, r3, r0, lsl #8
 525 0048 00B2     		sxth	r0, r0
 526 004a 86B2     		uxth	r6, r0
 527              	.LVL54:
 188:modbus_rtu.c  ****             uint16_t discrete_input_start_address;
 189:modbus_rtu.c  ****             discrete_input_start_address = (((uint16_t)(*(modbus_received_data + 2)) << 8) | ((uint
 528              		.loc 1 189 0
 529 004c AC78     		ldrb	r4, [r5, #2]	@ zero_extendqisi2
 530 004e EB78     		ldrb	r3, [r5, #3]	@ zero_extendqisi2
 531 0050 43EA0424 		orr	r4, r3, r4, lsl #8
 532 0054 24B2     		sxth	r4, r4
 533 0056 1FFA84FE 		uxth	lr, r4
 534              	.LVL55:
 190:modbus_rtu.c  ****             if(discrete_input_start_address >= NUMBER_OF_DISCRETE_INPUTS)
 535              		.loc 1 190 0
 536 005a BEF13F0F 		cmp	lr, #63
 537 005e 14D9     		bls	.L28
 191:modbus_rtu.c  ****             {
 192:modbus_rtu.c  ****                 modbus_response_data_length = 5;
 538              		.loc 1 192 0
 539 0060 0522     		movs	r2, #5
 540 0062 4D4B     		ldr	r3, .L38+8
 541 0064 1A70     		strb	r2, [r3]
 193:modbus_rtu.c  ****                 modbus_response_read_discrete_input[0] = *(modbus_received_data + 0);
 542              		.loc 1 193 0
ARM GAS  C:\Users\Shaunak\AppData\Local\Temp\ccVo5zvX.s 			page 14


 543 0066 2B78     		ldrb	r3, [r5]	@ zero_extendqisi2
 544 0068 4C4C     		ldr	r4, .L38+12
 545 006a 2370     		strb	r3, [r4]
 194:modbus_rtu.c  ****                 modbus_response_read_discrete_input[1] = *(modbus_received_data + 1) + 128;
 546              		.loc 1 194 0
 547 006c 6B78     		ldrb	r3, [r5, #1]	@ zero_extendqisi2
 548 006e 803B     		subs	r3, r3, #128
 549 0070 6370     		strb	r3, [r4, #1]
 195:modbus_rtu.c  ****                 modbus_response_read_discrete_input[2] = 0x02;
 550              		.loc 1 195 0
 551 0072 0223     		movs	r3, #2
 552 0074 A370     		strb	r3, [r4, #2]
 196:modbus_rtu.c  ****                 crc16 = CRC16(&modbus_response_read_coil[0], 3); 
 553              		.loc 1 196 0
 554 0076 0321     		movs	r1, #3
 555 0078 4948     		ldr	r0, .L38+16
 556 007a FFF7FEFF 		bl	CRC16
 557              	.LVL56:
 558 007e 454B     		ldr	r3, .L38+4
 559 0080 1880     		strh	r0, [r3]	@ movhi
 197:modbus_rtu.c  ****                 modbus_response_read_discrete_input[3] = (uint8_t)(crc16 >> 8);
 560              		.loc 1 197 0
 561 0082 030A     		lsrs	r3, r0, #8
 562 0084 E370     		strb	r3, [r4, #3]
 198:modbus_rtu.c  ****                 modbus_response_read_discrete_input[4] = (uint8_t)(crc16 & 0x00FF);
 563              		.loc 1 198 0
 564 0086 2071     		strb	r0, [r4, #4]
 565 0088 7FE0     		b	.L26
 566              	.LVL57:
 567              	.L28:
 199:modbus_rtu.c  ****             }
 200:modbus_rtu.c  ****             else if((discrete_input_start_address + discrete_input_count) >= (NUMBER_OF_DISCRETE_IN
 568              		.loc 1 200 0
 569 008a 3746     		mov	r7, r6
 570 008c 0EEB0603 		add	r3, lr, r6
 571 0090 402B     		cmp	r3, #64
 572 0092 13DD     		ble	.L29
 201:modbus_rtu.c  ****             {
 202:modbus_rtu.c  ****                 modbus_response_data_length = 5;
 573              		.loc 1 202 0
 574 0094 0522     		movs	r2, #5
 575 0096 404B     		ldr	r3, .L38+8
 576 0098 1A70     		strb	r2, [r3]
 203:modbus_rtu.c  ****                 modbus_response_read_discrete_input[0] = *(modbus_received_data + 0);
 577              		.loc 1 203 0
 578 009a 2B78     		ldrb	r3, [r5]	@ zero_extendqisi2
 579 009c 3F4C     		ldr	r4, .L38+12
 580 009e 2370     		strb	r3, [r4]
 204:modbus_rtu.c  ****                 modbus_response_read_discrete_input[1] = *(modbus_received_data + 1) + 128;
 581              		.loc 1 204 0
 582 00a0 6B78     		ldrb	r3, [r5, #1]	@ zero_extendqisi2
 583 00a2 803B     		subs	r3, r3, #128
 584 00a4 6370     		strb	r3, [r4, #1]
 205:modbus_rtu.c  ****                 modbus_response_read_discrete_input[2] = 0x03;
 585              		.loc 1 205 0
 586 00a6 0321     		movs	r1, #3
 587 00a8 A170     		strb	r1, [r4, #2]
ARM GAS  C:\Users\Shaunak\AppData\Local\Temp\ccVo5zvX.s 			page 15


 206:modbus_rtu.c  ****                 crc16 = CRC16(&modbus_response_read_coil[0], 3); 
 588              		.loc 1 206 0
 589 00aa 3D48     		ldr	r0, .L38+16
 590 00ac FFF7FEFF 		bl	CRC16
 591              	.LVL58:
 592 00b0 384B     		ldr	r3, .L38+4
 593 00b2 1880     		strh	r0, [r3]	@ movhi
 207:modbus_rtu.c  ****                 modbus_response_read_discrete_input[3] = (uint8_t)(crc16 >> 8);
 594              		.loc 1 207 0
 595 00b4 030A     		lsrs	r3, r0, #8
 596 00b6 E370     		strb	r3, [r4, #3]
 208:modbus_rtu.c  ****                 modbus_response_read_discrete_input[4] = (uint8_t)(crc16 & 0x00FF);
 597              		.loc 1 208 0
 598 00b8 2071     		strb	r0, [r4, #4]
 599 00ba 66E0     		b	.L26
 600              	.LVL59:
 601              	.L29:
 602              	.LBB5:
 209:modbus_rtu.c  ****             }
 210:modbus_rtu.c  ****             else
 211:modbus_rtu.c  ****             {
 212:modbus_rtu.c  ****                 //STATUS_LED_TOGGLE;
 213:modbus_rtu.c  ****                 uint8_t modulo_discrete_input_count = (uint8_t)discrete_input_count % 8;
 603              		.loc 1 213 0
 604 00bc 00F00700 		and	r0, r0, #7
 605              	.LVL60:
 214:modbus_rtu.c  ****                 uint8_t modulo_start_address = (uint8_t)(discrete_input_start_address % 8);
 606              		.loc 1 214 0
 607 00c0 04F00704 		and	r4, r4, #7
 608              	.LVL61:
 215:modbus_rtu.c  ****                 uint8_t byte_index = (uint8_t)(discrete_input_start_address / 8);
 609              		.loc 1 215 0
 610 00c4 CEF3C70E 		ubfx	lr, lr, #3, #8
 611              	.LVL62:
 216:modbus_rtu.c  ****                 modbus_response_read_discrete_input[0] = *(modbus_received_data + 0);
 612              		.loc 1 216 0
 613 00c8 344B     		ldr	r3, .L38+12
 614 00ca 1970     		strb	r1, [r3]
 615              	.LVL63:
 217:modbus_rtu.c  ****                 modbus_response_read_discrete_input[1] = *(modbus_received_data + 1);
 616              		.loc 1 217 0
 617 00cc 6A78     		ldrb	r2, [r5, #1]	@ zero_extendqisi2
 618 00ce 5A70     		strb	r2, [r3, #1]
 619              	.LVL64:
 218:modbus_rtu.c  ****                 uint8_t u = 0;
 219:modbus_rtu.c  ****                 for(u = 0; u < ((discrete_input_count + 8 - modulo_discrete_input_count)/ 8); u++)
 620              		.loc 1 219 0
 621 00d0 0025     		movs	r5, #0
 622              	.LVL65:
 623 00d2 16E0     		b	.L30
 624              	.LVL66:
 625              	.L32:
 220:modbus_rtu.c  ****                 {
 221:modbus_rtu.c  ****                     modbus_response_read_discrete_input[u + 3] = ((modbus_discrete_input_value[byte
 626              		.loc 1 221 0 discriminator 3
 627 00d4 02F1030C 		add	ip, r2, #3
 628 00d8 324A     		ldr	r2, .L38+20
ARM GAS  C:\Users\Shaunak\AppData\Local\Temp\ccVo5zvX.s 			page 16


 629 00da 12F80E30 		ldrb	r3, [r2, lr]	@ zero_extendqisi2
 630 00de 43FA04F1 		asr	r1, r3, r4
 631 00e2 0EF1010E 		add	lr, lr, #1
 632              	.LVL67:
 633 00e6 12F80E20 		ldrb	r2, [r2, lr]	@ zero_extendqisi2
 634 00ea C4F10803 		rsb	r3, r4, #8
 635 00ee 02FA03F3 		lsl	r3, r2, r3
 636 00f2 0B43     		orrs	r3, r3, r1
 637 00f4 294A     		ldr	r2, .L38+12
 638 00f6 02F80C30 		strb	r3, [r2, ip]
 222:modbus_rtu.c  ****                     byte_index++;
 639              		.loc 1 222 0 discriminator 3
 640 00fa 5FFA8EFE 		uxtb	lr, lr
 641              	.LVL68:
 219:modbus_rtu.c  ****                 {
 642              		.loc 1 219 0 discriminator 3
 643 00fe 0135     		adds	r5, r5, #1
 644              	.LVL69:
 645 0100 EDB2     		uxtb	r5, r5
 646              	.LVL70:
 647              	.L30:
 219:modbus_rtu.c  ****                 {
 648              		.loc 1 219 0 is_stmt 0 discriminator 1
 649 0102 2A46     		mov	r2, r5
 650 0104 07F10803 		add	r3, r7, #8
 651 0108 0146     		mov	r1, r0
 652 010a 1B1A     		subs	r3, r3, r0
 653 010c 00D5     		bpl	.L31
 654 010e 0733     		adds	r3, r3, #7
 655              	.L31:
 656 0110 DB10     		asrs	r3, r3, #3
 657 0112 9A42     		cmp	r2, r3
 658 0114 DEDB     		blt	.L32
 223:modbus_rtu.c  ****                 }
 224:modbus_rtu.c  ****                 if(modulo_discrete_input_count != 0)
 659              		.loc 1 224 0 is_stmt 1
 660 0116 F0B1     		cbz	r0, .L33
 225:modbus_rtu.c  ****                 {
 226:modbus_rtu.c  ****                     modbus_response_data_length = 5 + (((discrete_input_count - modulo_discrete_inp
 661              		.loc 1 226 0
 662 0118 761A     		subs	r6, r6, r1
 663              	.LVL71:
 664 011a 0836     		adds	r6, r6, #8
 665 011c 00D5     		bpl	.L34
 666 011e 0736     		adds	r6, r6, #7
 667              	.L34:
 668 0120 F610     		asrs	r6, r6, #3
 669 0122 701D     		adds	r0, r6, #5
 670              	.LVL72:
 671 0124 1C4D     		ldr	r5, .L38+8
 672              	.LVL73:
 673 0126 2870     		strb	r0, [r5]
 227:modbus_rtu.c  ****                     modbus_response_read_discrete_input[u + 2] = (((modbus_response_discrete_input_
 674              		.loc 1 227 0
 675 0128 961C     		adds	r6, r2, #2
 676 012a 1F48     		ldr	r0, .L38+24
 677 012c 10F80E50 		ldrb	r5, [r0, lr]	@ zero_extendqisi2
ARM GAS  C:\Users\Shaunak\AppData\Local\Temp\ccVo5zvX.s 			page 17


 678 0130 2541     		asrs	r5, r5, r4
 679 0132 0EF10102 		add	r2, lr, #1
 680 0136 805C     		ldrb	r0, [r0, r2]	@ zero_extendqisi2
 681 0138 C4F10804 		rsb	r4, r4, #8
 682              	.LVL74:
 683 013c 00FA04F4 		lsl	r4, r0, r4
 684 0140 02AA     		add	r2, sp, #8
 685 0142 1144     		add	r1, r1, r2
 686              	.LVL75:
 687 0144 11F8080C 		ldrb	r0, [r1, #-8]	@ zero_extendqisi2
 688 0148 144A     		ldr	r2, .L38+12
 689 014a 45EA0401 		orr	r1, r5, r4
 690 014e 0140     		ands	r1, r1, r0
 691 0150 9155     		strb	r1, [r2, r6]
 228:modbus_rtu.c  ****                     modbus_response_read_discrete_input[2] = (uint8_t)((discrete_input_count + 8 - 
 692              		.loc 1 228 0
 693 0152 9370     		strb	r3, [r2, #2]
 694 0154 0AE0     		b	.L35
 695              	.LVL76:
 696              	.L33:
 229:modbus_rtu.c  ****                 }
 230:modbus_rtu.c  ****                 else
 231:modbus_rtu.c  ****                 {
 232:modbus_rtu.c  ****                     modbus_response_read_discrete_input[2] = (uint8_t)((discrete_input_count + 8 - 
 697              		.loc 1 232 0
 698 0156 013B     		subs	r3, r3, #1
 699 0158 104A     		ldr	r2, .L38+12
 700 015a 9370     		strb	r3, [r2, #2]
 233:modbus_rtu.c  ****                     modbus_response_data_length = 5 + (((discrete_input_count - modulo_discrete_inp
 701              		.loc 1 233 0
 702 015c 711A     		subs	r1, r6, r1
 703 015e 0831     		adds	r1, r1, #8
 704 0160 00D5     		bpl	.L36
 705 0162 0731     		adds	r1, r1, #7
 706              	.L36:
 707 0164 C910     		asrs	r1, r1, #3
 708 0166 0B1D     		adds	r3, r1, #4
 709 0168 0B4A     		ldr	r2, .L38+8
 710 016a 1370     		strb	r3, [r2]
 711              	.LVL77:
 712              	.L35:
 234:modbus_rtu.c  ****                 }
 235:modbus_rtu.c  ****                 crc16 = CRC16(&modbus_response_read_discrete_input[0], modbus_response_data_length 
 713              		.loc 1 235 0
 714 016c 0A4B     		ldr	r3, .L38+8
 715 016e 1C78     		ldrb	r4, [r3]	@ zero_extendqisi2
 716 0170 A11E     		subs	r1, r4, #2
 717 0172 0A4D     		ldr	r5, .L38+12
 718 0174 89B2     		uxth	r1, r1
 719 0176 2846     		mov	r0, r5
 720 0178 FFF7FEFF 		bl	CRC16
 721              	.LVL78:
 722 017c 054B     		ldr	r3, .L38+4
 723 017e 1880     		strh	r0, [r3]	@ movhi
 236:modbus_rtu.c  ****                 modbus_response_read_discrete_input[modbus_response_data_length - 2] = (uint8_t)(cr
 724              		.loc 1 236 0
 725 0180 A31E     		subs	r3, r4, #2
ARM GAS  C:\Users\Shaunak\AppData\Local\Temp\ccVo5zvX.s 			page 18


 726 0182 020A     		lsrs	r2, r0, #8
 727 0184 EA54     		strb	r2, [r5, r3]
 237:modbus_rtu.c  ****                 modbus_response_read_discrete_input[modbus_response_data_length - 1] = (uint8_t)(cr
 728              		.loc 1 237 0
 729 0186 013C     		subs	r4, r4, #1
 730 0188 2855     		strb	r0, [r5, r4]
 731              	.LVL79:
 732              	.L26:
 733              	.LBE5:
 734              	.LBE4:
 238:modbus_rtu.c  ****             }
 239:modbus_rtu.c  ****         }       
 240:modbus_rtu.c  ****     }
 241:modbus_rtu.c  **** }
 735              		.loc 1 241 0
 736 018a 03B0     		add	sp, sp, #12
 737              		.cfi_def_cfa_offset 20
 738              		@ sp needed
 739 018c F0BD     		pop	{r4, r5, r6, r7, pc}
 740              	.L39:
 741 018e 00BF     		.align	2
 742              	.L38:
 743 0190 00020000 		.word	.LANCHOR0+512
 744 0194 00000000 		.word	crc16
 745 0198 00000000 		.word	modbus_response_data_length
 746 019c 00000000 		.word	modbus_response_read_discrete_input
 747 01a0 00000000 		.word	modbus_response_read_coil
 748 01a4 00000000 		.word	modbus_discrete_input_value
 749 01a8 00000000 		.word	modbus_response_discrete_input_temp
 750              		.cfi_endproc
 751              	.LFE3:
 752              		.size	query_response_read_discrete_input, .-query_response_read_discrete_input
 753              		.section	.text.query_response_force_single_coil,"ax",%progbits
 754              		.align	2
 755              		.global	query_response_force_single_coil
 756              		.thumb
 757              		.thumb_func
 758              		.type	query_response_force_single_coil, %function
 759              	query_response_force_single_coil:
 760              	.LFB4:
 242:modbus_rtu.c  **** void query_response_force_single_coil(uint8_t *modbus_received_data, uint8_t number_of_bytes)
 243:modbus_rtu.c  **** {
 761              		.loc 1 243 0
 762              		.cfi_startproc
 763              		@ args = 0, pretend = 0, frame = 16
 764              		@ frame_needed = 0, uses_anonymous_args = 0
 765              	.LVL80:
 766 0000 F0B5     		push	{r4, r5, r6, r7, lr}
 767              		.cfi_def_cfa_offset 20
 768              		.cfi_offset 4, -20
 769              		.cfi_offset 5, -16
 770              		.cfi_offset 6, -12
 771              		.cfi_offset 7, -8
 772              		.cfi_offset 14, -4
 773 0002 85B0     		sub	sp, sp, #20
 774              		.cfi_def_cfa_offset 40
 775 0004 0546     		mov	r5, r0
ARM GAS  C:\Users\Shaunak\AppData\Local\Temp\ccVo5zvX.s 			page 19


 776 0006 0C46     		mov	r4, r1
 244:modbus_rtu.c  ****     crc16 = CRC16(&(*(modbus_received_data + 0)), number_of_bytes - 2);
 777              		.loc 1 244 0
 778 0008 0239     		subs	r1, r1, #2
 779              	.LVL81:
 780 000a 89B2     		uxth	r1, r1
 781 000c FFF7FEFF 		bl	CRC16
 782              	.LVL82:
 783 0010 464B     		ldr	r3, .L48
 784 0012 1880     		strh	r0, [r3]	@ movhi
 245:modbus_rtu.c  ****     if(((uint16_t)(*(modbus_received_data + number_of_bytes - 2)) == (crc16 >> 8)) && ((uint16_t)(*
 785              		.loc 1 245 0
 786 0014 A31E     		subs	r3, r4, #2
 787 0016 EB5C     		ldrb	r3, [r5, r3]	@ zero_extendqisi2
 788 0018 B3EB102F 		cmp	r3, r0, lsr #8
 789 001c 40F08380 		bne	.L40
 790              		.loc 1 245 0 is_stmt 0 discriminator 1
 791 0020 013C     		subs	r4, r4, #1
 792 0022 2B5D     		ldrb	r3, [r5, r4]	@ zero_extendqisi2
 793 0024 C0B2     		uxtb	r0, r0
 794 0026 8342     		cmp	r3, r0
 795 0028 7DD1     		bne	.L40
 246:modbus_rtu.c  ****     {
 247:modbus_rtu.c  ****         if((*modbus_received_data + 0) == MODBUS_SLAVE_ADDRESS)
 796              		.loc 1 247 0 is_stmt 1
 797 002a 2B78     		ldrb	r3, [r5]	@ zero_extendqisi2
 798 002c 012B     		cmp	r3, #1
 799 002e 7AD1     		bne	.L40
 800              	.LBB6:
 248:modbus_rtu.c  ****         {
 249:modbus_rtu.c  ****             uint16_t coil_address = ((uint16_t)(*(modbus_received_data + 2)) << 8) | (uint16_t)(*(m
 801              		.loc 1 249 0
 802 0030 AA78     		ldrb	r2, [r5, #2]	@ zero_extendqisi2
 803 0032 EB78     		ldrb	r3, [r5, #3]	@ zero_extendqisi2
 804 0034 43EA0223 		orr	r3, r3, r2, lsl #8
 805 0038 1BB2     		sxth	r3, r3
 806 003a 99B2     		uxth	r1, r3
 807              	.LVL83:
 250:modbus_rtu.c  ****             uint16_t forced_coil_value = ((uint16_t)(*(modbus_received_data + 4)) << 8) | (uint16_t
 808              		.loc 1 250 0
 809 003c 2879     		ldrb	r0, [r5, #4]	@ zero_extendqisi2
 810 003e 6A79     		ldrb	r2, [r5, #5]	@ zero_extendqisi2
 811 0040 42EA0022 		orr	r2, r2, r0, lsl #8
 812              	.LVL84:
 251:modbus_rtu.c  ****             if(coil_address >= NUMBER_OF_COILS)
 813              		.loc 1 251 0
 814 0044 3F29     		cmp	r1, #63
 815 0046 14D9     		bls	.L42
 252:modbus_rtu.c  ****             {
 253:modbus_rtu.c  ****                 modbus_response_data_length = 5;
 816              		.loc 1 253 0
 817 0048 0522     		movs	r2, #5
 818              	.LVL85:
 819 004a 394B     		ldr	r3, .L48+4
 820 004c 1A70     		strb	r2, [r3]
 254:modbus_rtu.c  ****                 modbus_response_force_single_coil[0] = *(modbus_received_data + 0);
 821              		.loc 1 254 0
ARM GAS  C:\Users\Shaunak\AppData\Local\Temp\ccVo5zvX.s 			page 20


 822 004e 2B78     		ldrb	r3, [r5]	@ zero_extendqisi2
 823 0050 384C     		ldr	r4, .L48+8
 824 0052 2370     		strb	r3, [r4]
 825              	.LVL86:
 255:modbus_rtu.c  ****                 modbus_response_force_single_coil[1] = *(modbus_received_data + 1) + 128;
 826              		.loc 1 255 0
 827 0054 6B78     		ldrb	r3, [r5, #1]	@ zero_extendqisi2
 828 0056 803B     		subs	r3, r3, #128
 829 0058 6370     		strb	r3, [r4, #1]
 256:modbus_rtu.c  ****                 modbus_response_force_single_coil[2] = 0x02;
 830              		.loc 1 256 0
 831 005a 0223     		movs	r3, #2
 832 005c A370     		strb	r3, [r4, #2]
 257:modbus_rtu.c  ****                 crc16 = CRC16(&modbus_response_read_coil[0], 3); 
 833              		.loc 1 257 0
 834 005e 0321     		movs	r1, #3
 835              	.LVL87:
 836 0060 3548     		ldr	r0, .L48+12
 837 0062 FFF7FEFF 		bl	CRC16
 838              	.LVL88:
 839 0066 314B     		ldr	r3, .L48
 840 0068 1880     		strh	r0, [r3]	@ movhi
 258:modbus_rtu.c  ****                 modbus_response_force_single_coil[3] = (uint8_t)(crc16 >> 8);
 841              		.loc 1 258 0
 842 006a 030A     		lsrs	r3, r0, #8
 843 006c E370     		strb	r3, [r4, #3]
 259:modbus_rtu.c  ****                 modbus_response_force_single_coil[4] = (uint8_t)(crc16 & 0x00FF);
 844              		.loc 1 259 0
 845 006e 2071     		strb	r0, [r4, #4]
 846 0070 59E0     		b	.L40
 847              	.LVL89:
 848              	.L42:
 260:modbus_rtu.c  ****             }
 261:modbus_rtu.c  ****             else if(forced_coil_value != 0x0000 && forced_coil_value != 0xFF00)
 849              		.loc 1 261 0
 850 0072 B2B1     		cbz	r2, .L43
 851              		.loc 1 261 0 is_stmt 0 discriminator 1
 852 0074 B2F57F4F 		cmp	r2, #65280
 853 0078 13D0     		beq	.L43
 262:modbus_rtu.c  ****             {
 263:modbus_rtu.c  ****                 modbus_response_data_length = 5;
 854              		.loc 1 263 0 is_stmt 1
 855 007a 0522     		movs	r2, #5
 856              	.LVL90:
 857 007c 2C4B     		ldr	r3, .L48+4
 858 007e 1A70     		strb	r2, [r3]
 264:modbus_rtu.c  ****                 modbus_response_force_single_coil[0] = *(modbus_received_data + 0);
 859              		.loc 1 264 0
 860 0080 2B78     		ldrb	r3, [r5]	@ zero_extendqisi2
 861 0082 2C4C     		ldr	r4, .L48+8
 862 0084 2370     		strb	r3, [r4]
 863              	.LVL91:
 265:modbus_rtu.c  ****                 modbus_response_force_single_coil[1] = *(modbus_received_data + 1) + 128;
 864              		.loc 1 265 0
 865 0086 6B78     		ldrb	r3, [r5, #1]	@ zero_extendqisi2
 866 0088 803B     		subs	r3, r3, #128
 867 008a 6370     		strb	r3, [r4, #1]
ARM GAS  C:\Users\Shaunak\AppData\Local\Temp\ccVo5zvX.s 			page 21


 266:modbus_rtu.c  ****                 modbus_response_force_single_coil[2] = 0x03;
 868              		.loc 1 266 0
 869 008c 0321     		movs	r1, #3
 870              	.LVL92:
 871 008e A170     		strb	r1, [r4, #2]
 267:modbus_rtu.c  ****                 crc16 = CRC16(&modbus_response_read_coil[0], 3); 
 872              		.loc 1 267 0
 873 0090 2948     		ldr	r0, .L48+12
 874 0092 FFF7FEFF 		bl	CRC16
 875              	.LVL93:
 876 0096 254B     		ldr	r3, .L48
 877 0098 1880     		strh	r0, [r3]	@ movhi
 268:modbus_rtu.c  ****                 modbus_response_force_single_coil[3] = (uint8_t)(crc16 >> 8);
 878              		.loc 1 268 0
 879 009a 030A     		lsrs	r3, r0, #8
 880 009c E370     		strb	r3, [r4, #3]
 269:modbus_rtu.c  ****                 modbus_response_force_single_coil[4] = (uint8_t)(crc16 & 0x00FF);
 881              		.loc 1 269 0
 882 009e 2071     		strb	r0, [r4, #4]
 883 00a0 41E0     		b	.L40
 884              	.LVL94:
 885              	.L43:
 886              	.LBB7:
 270:modbus_rtu.c  ****             }
 271:modbus_rtu.c  ****             else
 272:modbus_rtu.c  ****             {
 273:modbus_rtu.c  ****                 //STATUS_LED_TOGGLE;
 274:modbus_rtu.c  ****                 uint8_t modulo_coil_address = coil_address % 8;
 887              		.loc 1 274 0
 888 00a2 03F00703 		and	r3, r3, #7
 889              	.LVL95:
 275:modbus_rtu.c  ****                 uint8_t coil_address_index = coil_address / 8;
 890              		.loc 1 275 0
 891 00a6 C1F3C707 		ubfx	r7, r1, #3, #8
 892              	.LVL96:
 276:modbus_rtu.c  ****                 uint8_t force_single_coil_array_for_zero_pad[8] = {0x7F, 0xBF, 0xDF, 0xEF, 0xF7, 0x
 893              		.loc 1 276 0
 894 00aa 244C     		ldr	r4, .L48+16
 895 00ac 6E46     		mov	r6, sp
 896 00ae D4F80802 		ldr	r0, [r4, #520]	@ unaligned
 897 00b2 D4F80C12 		ldr	r1, [r4, #524]	@ unaligned
 898              	.LVL97:
 899 00b6 03C6     		stmia	r6!, {r0, r1}
 277:modbus_rtu.c  ****                 uint8_t force_single_coil_array_for_writing_one_pad[8] = {0x80, 0x40, 0x20, 0x10, 0
 900              		.loc 1 277 0
 901 00b8 D4F81002 		ldr	r0, [r4, #528]	@ unaligned
 902 00bc D4F81412 		ldr	r1, [r4, #532]	@ unaligned
 903 00c0 03C6     		stmia	r6!, {r0, r1}
 278:modbus_rtu.c  ****                 switch(forced_coil_value)
 904              		.loc 1 278 0
 905 00c2 7AB1     		cbz	r2, .L45
 906 00c4 B2F57F4F 		cmp	r2, #65280
 907 00c8 14D1     		bne	.L44
 279:modbus_rtu.c  ****                 {
 280:modbus_rtu.c  ****                     case 0xFF00:
 281:modbus_rtu.c  ****                         modbus_response_coil_temp[coil_address_index] = (modbus_response_coil_temp[
 908              		.loc 1 281 0
ARM GAS  C:\Users\Shaunak\AppData\Local\Temp\ccVo5zvX.s 			page 22


 909 00ca 1D49     		ldr	r1, .L48+20
 910 00cc CC5D     		ldrb	r4, [r1, r7]	@ zero_extendqisi2
 911 00ce 04AA     		add	r2, sp, #16
 912              	.LVL98:
 913 00d0 1344     		add	r3, r3, r2
 914              	.LVL99:
 915 00d2 13F8102C 		ldrb	r2, [r3, #-16]	@ zero_extendqisi2
 916 00d6 13F8080C 		ldrb	r0, [r3, #-8]	@ zero_extendqisi2
 917 00da 04EA0203 		and	r3, r4, r2
 918 00de 0343     		orrs	r3, r3, r0
 919 00e0 CB55     		strb	r3, [r1, r7]
 920              	.LVL100:
 282:modbus_rtu.c  ****                         break;
 921              		.loc 1 282 0
 922 00e2 07E0     		b	.L44
 923              	.LVL101:
 924              	.L45:
 283:modbus_rtu.c  ****                     case 0x0000:
 284:modbus_rtu.c  ****                         modbus_response_coil_temp[coil_address_index] = (modbus_response_coil_temp[
 925              		.loc 1 284 0
 926 00e4 164A     		ldr	r2, .L48+20
 927              	.LVL102:
 928 00e6 D15D     		ldrb	r1, [r2, r7]	@ zero_extendqisi2
 929 00e8 04A8     		add	r0, sp, #16
 930 00ea 0344     		add	r3, r3, r0
 931              	.LVL103:
 932 00ec 13F8103C 		ldrb	r3, [r3, #-16]	@ zero_extendqisi2
 933 00f0 0B40     		ands	r3, r3, r1
 934 00f2 D355     		strb	r3, [r2, r7]
 935              	.LVL104:
 936              	.L44:
 285:modbus_rtu.c  ****                         break;
 286:modbus_rtu.c  ****                     default:
 287:modbus_rtu.c  ****                         break;
 288:modbus_rtu.c  ****                 }
 289:modbus_rtu.c  ****                 modbus_response_force_single_coil[0] = *(modbus_received_data + 0);
 937              		.loc 1 289 0 discriminator 1
 938 00f4 2B78     		ldrb	r3, [r5]	@ zero_extendqisi2
 939 00f6 0F4C     		ldr	r4, .L48+8
 940 00f8 2370     		strb	r3, [r4]
 290:modbus_rtu.c  ****                 modbus_response_force_single_coil[1] = *(modbus_received_data + 1);
 941              		.loc 1 290 0 discriminator 1
 942 00fa 6B78     		ldrb	r3, [r5, #1]	@ zero_extendqisi2
 943 00fc 6370     		strb	r3, [r4, #1]
 291:modbus_rtu.c  ****                 modbus_response_force_single_coil[2] = *(modbus_received_data + 2);
 944              		.loc 1 291 0 discriminator 1
 945 00fe AB78     		ldrb	r3, [r5, #2]	@ zero_extendqisi2
 946 0100 A370     		strb	r3, [r4, #2]
 292:modbus_rtu.c  ****                 modbus_response_force_single_coil[3] = *(modbus_received_data + 3);
 947              		.loc 1 292 0 discriminator 1
 948 0102 EB78     		ldrb	r3, [r5, #3]	@ zero_extendqisi2
 949 0104 E370     		strb	r3, [r4, #3]
 293:modbus_rtu.c  ****                 modbus_response_force_single_coil[4] = *(modbus_received_data + 4);
 950              		.loc 1 293 0 discriminator 1
 951 0106 2B79     		ldrb	r3, [r5, #4]	@ zero_extendqisi2
 952 0108 2371     		strb	r3, [r4, #4]
 294:modbus_rtu.c  ****                 modbus_response_force_single_coil[5] = *(modbus_received_data + 5);
ARM GAS  C:\Users\Shaunak\AppData\Local\Temp\ccVo5zvX.s 			page 23


 953              		.loc 1 294 0 discriminator 1
 954 010a 6B79     		ldrb	r3, [r5, #5]	@ zero_extendqisi2
 955 010c 6371     		strb	r3, [r4, #5]
 295:modbus_rtu.c  ****                 modbus_response_data_length = 8;
 956              		.loc 1 295 0 discriminator 1
 957 010e 0822     		movs	r2, #8
 958 0110 074B     		ldr	r3, .L48+4
 959 0112 1A70     		strb	r2, [r3]
 296:modbus_rtu.c  ****                 crc16 = CRC16(& modbus_response_force_single_coil[0], modbus_response_data_length -
 960              		.loc 1 296 0 discriminator 1
 961 0114 0621     		movs	r1, #6
 962 0116 2046     		mov	r0, r4
 963 0118 FFF7FEFF 		bl	CRC16
 964              	.LVL105:
 965 011c 034B     		ldr	r3, .L48
 966 011e 1880     		strh	r0, [r3]	@ movhi
 297:modbus_rtu.c  ****                 modbus_response_force_single_coil[modbus_response_data_length - 2] = (uint8_t)(crc1
 967              		.loc 1 297 0 discriminator 1
 968 0120 030A     		lsrs	r3, r0, #8
 969 0122 A371     		strb	r3, [r4, #6]
 298:modbus_rtu.c  ****                 modbus_response_force_single_coil[modbus_response_data_length - 1] = (uint8_t)(crc1
 970              		.loc 1 298 0 discriminator 1
 971 0124 E071     		strb	r0, [r4, #7]
 972              	.LVL106:
 973              	.L40:
 974              	.LBE7:
 975              	.LBE6:
 299:modbus_rtu.c  ****             }
 300:modbus_rtu.c  ****         }
 301:modbus_rtu.c  ****     }   
 302:modbus_rtu.c  **** }
 976              		.loc 1 302 0
 977 0126 05B0     		add	sp, sp, #20
 978              		.cfi_def_cfa_offset 20
 979              		@ sp needed
 980 0128 F0BD     		pop	{r4, r5, r6, r7, pc}
 981              	.LVL107:
 982              	.L49:
 983 012a 00BF     		.align	2
 984              	.L48:
 985 012c 00000000 		.word	crc16
 986 0130 00000000 		.word	modbus_response_data_length
 987 0134 00000000 		.word	modbus_response_force_single_coil
 988 0138 00000000 		.word	modbus_response_read_coil
 989 013c 00000000 		.word	.LANCHOR0
 990 0140 00000000 		.word	modbus_response_coil_temp
 991              		.cfi_endproc
 992              	.LFE4:
 993              		.size	query_response_force_single_coil, .-query_response_force_single_coil
 994              		.section	.text.query_response_force_multiple_coils,"ax",%progbits
 995              		.align	2
 996              		.global	query_response_force_multiple_coils
 997              		.thumb
 998              		.thumb_func
 999              		.type	query_response_force_multiple_coils, %function
 1000              	query_response_force_multiple_coils:
 1001              	.LFB5:
ARM GAS  C:\Users\Shaunak\AppData\Local\Temp\ccVo5zvX.s 			page 24


 303:modbus_rtu.c  **** void query_response_force_multiple_coils(uint8_t *modbus_received_data, uint8_t number_of_bytes)
 304:modbus_rtu.c  **** {
 1002              		.loc 1 304 0
 1003              		.cfi_startproc
 1004              		@ args = 0, pretend = 0, frame = 40
 1005              		@ frame_needed = 0, uses_anonymous_args = 0
 1006              	.LVL108:
 1007 0000 2DE9F04F 		push	{r4, r5, r6, r7, r8, r9, r10, fp, lr}
 1008              		.cfi_def_cfa_offset 36
 1009              		.cfi_offset 4, -36
 1010              		.cfi_offset 5, -32
 1011              		.cfi_offset 6, -28
 1012              		.cfi_offset 7, -24
 1013              		.cfi_offset 8, -20
 1014              		.cfi_offset 9, -16
 1015              		.cfi_offset 10, -12
 1016              		.cfi_offset 11, -8
 1017              		.cfi_offset 14, -4
 1018 0004 8BB0     		sub	sp, sp, #44
 1019              		.cfi_def_cfa_offset 80
 1020 0006 0446     		mov	r4, r0
 1021 0008 0D46     		mov	r5, r1
 305:modbus_rtu.c  ****     crc16 = CRC16(&(*(modbus_received_data + 0)), number_of_bytes - 2);
 1022              		.loc 1 305 0
 1023 000a 0239     		subs	r1, r1, #2
 1024              	.LVL109:
 1025 000c 89B2     		uxth	r1, r1
 1026 000e FFF7FEFF 		bl	CRC16
 1027              	.LVL110:
 1028 0012 BA4B     		ldr	r3, .L89
 1029 0014 1880     		strh	r0, [r3]	@ movhi
 306:modbus_rtu.c  ****     if(((uint16_t)(*(modbus_received_data + number_of_bytes - 2)) == (crc16 >> 8)) && ((uint16_t)(*
 1030              		.loc 1 306 0
 1031 0016 AB1E     		subs	r3, r5, #2
 1032 0018 E35C     		ldrb	r3, [r4, r3]	@ zero_extendqisi2
 1033 001a B3EB102F 		cmp	r3, r0, lsr #8
 1034 001e 40F02C82 		bne	.L50
 1035              		.loc 1 306 0 is_stmt 0 discriminator 1
 1036 0022 013D     		subs	r5, r5, #1
 1037 0024 635D     		ldrb	r3, [r4, r5]	@ zero_extendqisi2
 1038 0026 C0B2     		uxtb	r0, r0
 1039 0028 8342     		cmp	r3, r0
 1040 002a 40F02682 		bne	.L50
 1041              	.LBB8:
 307:modbus_rtu.c  ****     {
 308:modbus_rtu.c  ****         uint16_t quantity_of_coils = ((uint16_t)(*(modbus_received_data + 4)) << 8) | (uint16_t)(*(
 1042              		.loc 1 308 0 is_stmt 1
 1043 002e 2279     		ldrb	r2, [r4, #4]	@ zero_extendqisi2
 1044 0030 6379     		ldrb	r3, [r4, #5]	@ zero_extendqisi2
 1045 0032 43EA0223 		orr	r3, r3, r2, lsl #8
 1046 0036 1BB2     		sxth	r3, r3
 1047 0038 9FB2     		uxth	r7, r3
 1048              	.LVL111:
 309:modbus_rtu.c  ****         uint16_t coil_start_address = ((uint16_t)(*(modbus_received_data + 2)) << 8) | (uint16_t)(*
 1049              		.loc 1 309 0
 1050 003a A678     		ldrb	r6, [r4, #2]	@ zero_extendqisi2
 1051 003c E278     		ldrb	r2, [r4, #3]	@ zero_extendqisi2
ARM GAS  C:\Users\Shaunak\AppData\Local\Temp\ccVo5zvX.s 			page 25


 1052 003e 42EA0626 		orr	r6, r2, r6, lsl #8
 1053 0042 36B2     		sxth	r6, r6
 1054 0044 B5B2     		uxth	r5, r6
 1055              	.LVL112:
 310:modbus_rtu.c  ****         if(coil_start_address >= NUMBER_OF_COILS)
 1056              		.loc 1 310 0
 1057 0046 3F2D     		cmp	r5, #63
 1058 0048 14D9     		bls	.L52
 311:modbus_rtu.c  ****         {
 312:modbus_rtu.c  ****             modbus_response_data_length = 5;
 1059              		.loc 1 312 0
 1060 004a 0522     		movs	r2, #5
 1061 004c AC4B     		ldr	r3, .L89+4
 1062 004e 1A70     		strb	r2, [r3]
 313:modbus_rtu.c  ****             modbus_response_force_multiple_coils[0] = *(modbus_received_data + 0);
 1063              		.loc 1 313 0
 1064 0050 2378     		ldrb	r3, [r4]	@ zero_extendqisi2
 1065 0052 AC4D     		ldr	r5, .L89+8
 1066              	.LVL113:
 1067 0054 2B70     		strb	r3, [r5]
 314:modbus_rtu.c  ****             modbus_response_force_multiple_coils[1] = *(modbus_received_data + 1) + 128;
 1068              		.loc 1 314 0
 1069 0056 6378     		ldrb	r3, [r4, #1]	@ zero_extendqisi2
 1070 0058 803B     		subs	r3, r3, #128
 1071 005a 6B70     		strb	r3, [r5, #1]
 315:modbus_rtu.c  ****             modbus_response_force_multiple_coils[2] = 0x02;
 1072              		.loc 1 315 0
 1073 005c 0223     		movs	r3, #2
 1074 005e AB70     		strb	r3, [r5, #2]
 316:modbus_rtu.c  ****             crc16 = CRC16(&modbus_response_read_coil[0], 3); 
 1075              		.loc 1 316 0
 1076 0060 0321     		movs	r1, #3
 1077 0062 A948     		ldr	r0, .L89+12
 1078 0064 FFF7FEFF 		bl	CRC16
 1079              	.LVL114:
 1080 0068 A44B     		ldr	r3, .L89
 1081 006a 1880     		strh	r0, [r3]	@ movhi
 317:modbus_rtu.c  ****             modbus_response_force_multiple_coils[3] = (uint8_t)(crc16 >> 8);
 1082              		.loc 1 317 0
 1083 006c 030A     		lsrs	r3, r0, #8
 1084 006e EB70     		strb	r3, [r5, #3]
 318:modbus_rtu.c  ****             modbus_response_force_multiple_coils[4] = (uint8_t)(crc16 & 0x00FF);
 1085              		.loc 1 318 0
 1086 0070 2871     		strb	r0, [r5, #4]
 1087 0072 02E2     		b	.L50
 1088              	.LVL115:
 1089              	.L52:
 319:modbus_rtu.c  ****         }
 320:modbus_rtu.c  ****         else if((coil_start_address + quantity_of_coils) >= (NUMBER_OF_COILS + 1))
 1090              		.loc 1 320 0
 1091 0074 EA19     		adds	r2, r5, r7
 1092 0076 402A     		cmp	r2, #64
 1093 0078 13DD     		ble	.L53
 321:modbus_rtu.c  ****         {
 322:modbus_rtu.c  ****             modbus_response_data_length = 5;
 1094              		.loc 1 322 0
 1095 007a 0522     		movs	r2, #5
ARM GAS  C:\Users\Shaunak\AppData\Local\Temp\ccVo5zvX.s 			page 26


 1096 007c A04B     		ldr	r3, .L89+4
 1097 007e 1A70     		strb	r2, [r3]
 323:modbus_rtu.c  ****             modbus_response_force_multiple_coils[0] = *(modbus_received_data + 0);
 1098              		.loc 1 323 0
 1099 0080 2378     		ldrb	r3, [r4]	@ zero_extendqisi2
 1100 0082 A04D     		ldr	r5, .L89+8
 1101              	.LVL116:
 1102 0084 2B70     		strb	r3, [r5]
 324:modbus_rtu.c  ****             modbus_response_force_multiple_coils[1] = *(modbus_received_data + 1) + 128;
 1103              		.loc 1 324 0
 1104 0086 6378     		ldrb	r3, [r4, #1]	@ zero_extendqisi2
 1105 0088 803B     		subs	r3, r3, #128
 1106 008a 6B70     		strb	r3, [r5, #1]
 325:modbus_rtu.c  ****             modbus_response_force_multiple_coils[2] = 0x03;
 1107              		.loc 1 325 0
 1108 008c 0321     		movs	r1, #3
 1109 008e A970     		strb	r1, [r5, #2]
 326:modbus_rtu.c  ****             crc16 = CRC16(&modbus_response_read_coil[0], 3); 
 1110              		.loc 1 326 0
 1111 0090 9D48     		ldr	r0, .L89+12
 1112 0092 FFF7FEFF 		bl	CRC16
 1113              	.LVL117:
 1114 0096 994B     		ldr	r3, .L89
 1115 0098 1880     		strh	r0, [r3]	@ movhi
 327:modbus_rtu.c  ****             modbus_response_force_multiple_coils[3] = (uint8_t)(crc16 >> 8);
 1116              		.loc 1 327 0
 1117 009a 030A     		lsrs	r3, r0, #8
 1118 009c EB70     		strb	r3, [r5, #3]
 328:modbus_rtu.c  ****             modbus_response_force_multiple_coils[4] = (uint8_t)(crc16 & 0x00FF);
 1119              		.loc 1 328 0
 1120 009e 2871     		strb	r0, [r5, #4]
 1121 00a0 EBE1     		b	.L50
 1122              	.LVL118:
 1123              	.L53:
 1124              	.LBB9:
 329:modbus_rtu.c  ****         }
 330:modbus_rtu.c  ****         else
 331:modbus_rtu.c  ****         {
 332:modbus_rtu.c  ****             //STATUS_LED_TOGGLE;
 333:modbus_rtu.c  ****             uint8_t modulo_quantity_of_coils = quantity_of_coils % 8;
 1125              		.loc 1 333 0
 1126 00a2 03F0070B 		and	fp, r3, #7
 1127              	.LVL119:
 334:modbus_rtu.c  ****             uint8_t modulo_coil_start_address = coil_start_address % 8;
 335:modbus_rtu.c  ****             uint8_t coil_address_index = (uint8_t)(coil_start_address / 8);
 1128              		.loc 1 335 0
 1129 00a6 C5F3C705 		ubfx	r5, r5, #3, #8
 1130              	.LVL120:
 336:modbus_rtu.c  ****             modbus_response_force_multiple_coils[0] = *(modbus_received_data + 0);
 1131              		.loc 1 336 0
 1132 00aa 2278     		ldrb	r2, [r4]	@ zero_extendqisi2
 1133 00ac 954B     		ldr	r3, .L89+8
 1134 00ae 1A70     		strb	r2, [r3]
 337:modbus_rtu.c  ****             modbus_response_force_multiple_coils[1] = *(modbus_received_data + 1);
 1135              		.loc 1 337 0
 1136 00b0 6278     		ldrb	r2, [r4, #1]	@ zero_extendqisi2
 1137 00b2 5A70     		strb	r2, [r3, #1]
ARM GAS  C:\Users\Shaunak\AppData\Local\Temp\ccVo5zvX.s 			page 27


 338:modbus_rtu.c  ****             uint8_t coil_bit_padding_with_one[8] = {0x80, 0xC0, 0xE0, 0xF0, 0xF8, 0xFC, 0xFE, 0xFF}
 1138              		.loc 1 338 0
 1139 00b4 954B     		ldr	r3, .L89+16
 1140 00b6 06AA     		add	r2, sp, #24
 1141 00b8 D3F81802 		ldr	r0, [r3, #536]	@ unaligned
 1142 00bc D3F81C12 		ldr	r1, [r3, #540]	@ unaligned
 1143 00c0 03C2     		stmia	r2!, {r0, r1}
 339:modbus_rtu.c  ****             uint8_t coil_bit_padding_with_zero[8] = {0x7F, 0x3F, 0x1F, 0x0F, 0x07, 0x03, 0x01, 0x00
 1144              		.loc 1 339 0
 1145 00c2 08AA     		add	r2, sp, #32
 1146 00c4 D3F82002 		ldr	r0, [r3, #544]	@ unaligned
 1147 00c8 D3F82412 		ldr	r1, [r3, #548]	@ unaligned
 1148 00cc 03C2     		stmia	r2!, {r0, r1}
 1149              	.LVL121:
 340:modbus_rtu.c  ****             uint8_t u = 0;
 341:modbus_rtu.c  ****             if(modulo_coil_start_address == 0 && modulo_quantity_of_coils == 0)
 1150              		.loc 1 341 0
 1151 00ce 16F00706 		ands	r6, r6, #7
 1152              	.LVL122:
 1153 00d2 13D1     		bne	.L54
 1154              		.loc 1 341 0 is_stmt 0 discriminator 1
 1155 00d4 BBF1000F 		cmp	fp, #0
 1156 00d8 0BD0     		beq	.L82
 1157 00da 0FE0     		b	.L54
 1158              	.LVL123:
 1159              	.L56:
 342:modbus_rtu.c  ****             {
 343:modbus_rtu.c  ****                 for(u = 0; u < (*(modbus_received_data + 6)); u++)
 344:modbus_rtu.c  ****                 {
 345:modbus_rtu.c  ****                     modbus_response_coil_temp[coil_address_index] = reverse_data(*(modbus_received_
 1160              		.loc 1 345 0 is_stmt 1 discriminator 3
 1161 00dc F31D     		adds	r3, r6, #7
 1162 00de E05C     		ldrb	r0, [r4, r3]	@ zero_extendqisi2
 1163 00e0 FFF7FEFF 		bl	reverse_data
 1164              	.LVL124:
 1165 00e4 8A4B     		ldr	r3, .L89+20
 1166 00e6 5855     		strb	r0, [r3, r5]
 346:modbus_rtu.c  ****                     coil_address_index++;
 1167              		.loc 1 346 0 discriminator 3
 1168 00e8 0135     		adds	r5, r5, #1
 1169              	.LVL125:
 1170 00ea EDB2     		uxtb	r5, r5
 1171              	.LVL126:
 343:modbus_rtu.c  ****                 {
 1172              		.loc 1 343 0 discriminator 3
 1173 00ec 0136     		adds	r6, r6, #1
 1174              	.LVL127:
 1175 00ee F6B2     		uxtb	r6, r6
 1176              	.LVL128:
 1177 00f0 00E0     		b	.L55
 1178              	.LVL129:
 1179              	.L82:
 1180 00f2 0026     		movs	r6, #0
 1181              	.LVL130:
 1182              	.L55:
 343:modbus_rtu.c  ****                 {
 1183              		.loc 1 343 0 is_stmt 0 discriminator 1
ARM GAS  C:\Users\Shaunak\AppData\Local\Temp\ccVo5zvX.s 			page 28


 1184 00f4 A379     		ldrb	r3, [r4, #6]	@ zero_extendqisi2
 1185 00f6 9E42     		cmp	r6, r3
 1186 00f8 F0D3     		bcc	.L56
 1187 00fa 59E0     		b	.L57
 1188              	.LVL131:
 1189              	.L54:
 347:modbus_rtu.c  ****                 }
 348:modbus_rtu.c  ****             }
 349:modbus_rtu.c  ****             else if(modulo_coil_start_address == 0 && modulo_quantity_of_coils != 0)
 1190              		.loc 1 349 0 is_stmt 1
 1191 00fc 4EBB     		cbnz	r6, .L58
 1192              		.loc 1 349 0 is_stmt 0 discriminator 1
 1193 00fe BBF1000F 		cmp	fp, #0
 1194 0102 0BD1     		bne	.L83
 1195 0104 25E0     		b	.L58
 1196              	.LVL132:
 1197              	.L60:
 350:modbus_rtu.c  ****             {
 351:modbus_rtu.c  ****                 for(u = 0; u < (*(modbus_received_data + 6) - 1); u++)
 352:modbus_rtu.c  ****                 {
 353:modbus_rtu.c  ****                     modbus_response_coil_temp[coil_address_index] = reverse_data(*(modbus_received_
 1198              		.loc 1 353 0 is_stmt 1 discriminator 3
 1199 0106 F31D     		adds	r3, r6, #7
 1200 0108 E05C     		ldrb	r0, [r4, r3]	@ zero_extendqisi2
 1201 010a FFF7FEFF 		bl	reverse_data
 1202              	.LVL133:
 1203 010e 804B     		ldr	r3, .L89+20
 1204 0110 5855     		strb	r0, [r3, r5]
 354:modbus_rtu.c  ****                     coil_address_index++;
 1205              		.loc 1 354 0 discriminator 3
 1206 0112 0135     		adds	r5, r5, #1
 1207              	.LVL134:
 1208 0114 EDB2     		uxtb	r5, r5
 1209              	.LVL135:
 351:modbus_rtu.c  ****                 {
 1210              		.loc 1 351 0 discriminator 3
 1211 0116 0136     		adds	r6, r6, #1
 1212              	.LVL136:
 1213 0118 F6B2     		uxtb	r6, r6
 1214              	.LVL137:
 1215 011a 00E0     		b	.L59
 1216              	.LVL138:
 1217              	.L83:
 1218 011c 0026     		movs	r6, #0
 1219              	.LVL139:
 1220              	.L59:
 351:modbus_rtu.c  ****                 {
 1221              		.loc 1 351 0 is_stmt 0 discriminator 1
 1222 011e A379     		ldrb	r3, [r4, #6]	@ zero_extendqisi2
 1223 0120 013B     		subs	r3, r3, #1
 1224 0122 9E42     		cmp	r6, r3
 1225 0124 EFDB     		blt	.L60
 355:modbus_rtu.c  ****                 }
 356:modbus_rtu.c  ****                 modbus_response_coil_temp[coil_address_index] = (modbus_response_coil_temp[coil_add
 1226              		.loc 1 356 0 is_stmt 1
 1227 0126 7A4F     		ldr	r7, .L89+20
 1228              	.LVL140:
ARM GAS  C:\Users\Shaunak\AppData\Local\Temp\ccVo5zvX.s 			page 29


 1229 0128 17F80580 		ldrb	r8, [r7, r5]	@ zero_extendqisi2
 1230 012c 0BF1FF39 		add	r9, fp, #-1
 1231 0130 0AAB     		add	r3, sp, #40
 1232 0132 9944     		add	r9, r9, r3
 1233 0134 19F8083C 		ldrb	r3, [r9, #-8]	@ zero_extendqisi2
 1234 0138 08EA0308 		and	r8, r8, r3
 1235 013c 0736     		adds	r6, r6, #7
 1236              	.LVL141:
 1237 013e A05D     		ldrb	r0, [r4, r6]	@ zero_extendqisi2
 1238 0140 FFF7FEFF 		bl	reverse_data
 1239              	.LVL142:
 1240 0144 19F8103C 		ldrb	r3, [r9, #-16]	@ zero_extendqisi2
 1241 0148 1840     		ands	r0, r0, r3
 1242 014a 48EA0003 		orr	r3, r8, r0
 1243 014e 7B55     		strb	r3, [r7, r5]
 1244 0150 2EE0     		b	.L57
 1245              	.LVL143:
 1246              	.L58:
 357:modbus_rtu.c  ****             }
 358:modbus_rtu.c  ****             else if(modulo_coil_start_address != 0 && modulo_quantity_of_coils != 0)
 1247              		.loc 1 358 0
 1248 0152 002E     		cmp	r6, #0
 1249 0154 00F02081 		beq	.L61
 1250              		.loc 1 358 0 is_stmt 0 discriminator 1
 1251 0158 BBF1000F 		cmp	fp, #0
 1252 015c 00F01C81 		beq	.L61
 359:modbus_rtu.c  ****             {
 360:modbus_rtu.c  ****                 if((modulo_coil_start_address + quantity_of_coils) <= 8)
 1253              		.loc 1 360 0 is_stmt 1
 1254 0160 B146     		mov	r9, r6
 1255 0162 BB19     		adds	r3, r7, r6
 1256 0164 0193     		str	r3, [sp, #4]
 1257 0166 082B     		cmp	r3, #8
 1258 0168 40F39D80 		ble	.L84
 1259 016c A4E0     		b	.L87
 1260              	.LVL144:
 1261              	.L70:
 361:modbus_rtu.c  ****                 {
 362:modbus_rtu.c  ****                     for(u = 0; u < *(modbus_received_data + 6); u++)
 363:modbus_rtu.c  ****                     {
 364:modbus_rtu.c  ****                         if((modulo_coil_start_address + quantity_of_coils) <= 7)
 1262              		.loc 1 364 0
 1263 016e 019A     		ldr	r2, [sp, #4]
 1264 0170 072A     		cmp	r2, #7
 1265 0172 1FDC     		bgt	.L64
 1266 0174 DDF808B0 		ldr	fp, [sp, #8]
 1267 0178 039E     		ldr	r6, [sp, #12]
 365:modbus_rtu.c  ****                         {
 366:modbus_rtu.c  ****                             modbus_response_coil_temp[coil_address_index] = 
 367:modbus_rtu.c  ****                             reverse_data((modbus_response_coil_temp[coil_address_index] 
 1268              		.loc 1 367 0
 1269 017a 654F     		ldr	r7, .L89+20
 1270              	.LVL145:
 1271 017c 785D     		ldrb	r0, [r7, r5]	@ zero_extendqisi2
 368:modbus_rtu.c  ****                             & coil_bit_padding_with_one[modulo_coil_start_address - 1])
 1272              		.loc 1 368 0
 1273 017e 731E     		subs	r3, r6, #1
ARM GAS  C:\Users\Shaunak\AppData\Local\Temp\ccVo5zvX.s 			page 30


 1274 0180 0AAA     		add	r2, sp, #40
 1275 0182 1344     		add	r3, r3, r2
 1276 0184 13F810EC 		ldrb	lr, [r3, #-16]	@ zero_extendqisi2
 369:modbus_rtu.c  ****                             | (modbus_response_coil_temp[coil_address_index] 
 370:modbus_rtu.c  ****                             & coil_bit_padding_with_zero[modulo_coil_start_address + modulo_quantit
 1277              		.loc 1 370 0
 1278 0188 06EB0B03 		add	r3, r6, fp
 1279 018c 013B     		subs	r3, r3, #1
 1280 018e 1344     		add	r3, r3, r2
 1281 0190 13F8082C 		ldrb	r2, [r3, #-8]	@ zero_extendqisi2
 371:modbus_rtu.c  ****                             | (*(modbus_received_data + 7)) << (8 - modulo_coil_start_address - mod
 1282              		.loc 1 371 0
 1283 0194 E379     		ldrb	r3, [r4, #7]	@ zero_extendqisi2
 1284 0196 C6F10801 		rsb	r1, r6, #8
 1285 019a CBEB0101 		rsb	r1, fp, r1
 1286 019e 8B40     		lsls	r3, r3, r1
 367:modbus_rtu.c  ****                             & coil_bit_padding_with_one[modulo_coil_start_address - 1])
 1287              		.loc 1 367 0
 1288 01a0 4EEA0202 		orr	r2, lr, r2
 1289 01a4 1040     		ands	r0, r0, r2
 1290 01a6 1843     		orrs	r0, r0, r3
 1291 01a8 C0B2     		uxtb	r0, r0
 1292 01aa FFF7FEFF 		bl	reverse_data
 1293              	.LVL146:
 366:modbus_rtu.c  ****                             reverse_data((modbus_response_coil_temp[coil_address_index] 
 1294              		.loc 1 366 0
 1295 01ae 7855     		strb	r0, [r7, r5]
 1296              	.LVL147:
 1297              	.L57:
 1298 01b0 0023     		movs	r3, #0
 1299 01b2 53E1     		b	.L65
 1300              	.LVL148:
 1301              	.L64:
 372:modbus_rtu.c  ****                             break;
 373:modbus_rtu.c  ****                         }
 374:modbus_rtu.c  ****                         if(u == 0)
 1302              		.loc 1 374 0
 1303 01b4 DFB9     		cbnz	r7, .L66
 375:modbus_rtu.c  ****                         {
 376:modbus_rtu.c  ****                             modbus_response_coil_temp[coil_address_index] = 
 377:modbus_rtu.c  ****                             (modbus_response_coil_temp[coil_address_index] 
 1304              		.loc 1 377 0
 1305 01b6 DFF858A1 		ldr	r10, .L89+20
 1306 01ba 1AF805B0 		ldrb	fp, [r10, r5]	@ zero_extendqisi2
 378:modbus_rtu.c  ****                             & coil_bit_padding_with_one[modulo_coil_start_address - 1]) 
 1307              		.loc 1 378 0
 1308 01be 09F1FF36 		add	r6, r9, #-1
 1309 01c2 0AAB     		add	r3, sp, #40
 1310 01c4 1E44     		add	r6, r6, r3
 1311 01c6 16F8108C 		ldrb	r8, [r6, #-16]	@ zero_extendqisi2
 379:modbus_rtu.c  ****                             | (reverse_data(*(modbus_received_data + 7 + u)) >> (modulo_coil_start_
 1312              		.loc 1 379 0
 1313 01ca FB1D     		adds	r3, r7, #7
 1314 01cc E05C     		ldrb	r0, [r4, r3]	@ zero_extendqisi2
 1315 01ce FFF7FEFF 		bl	reverse_data
 1316              	.LVL149:
 1317 01d2 40FA09F0 		asr	r0, r0, r9
ARM GAS  C:\Users\Shaunak\AppData\Local\Temp\ccVo5zvX.s 			page 31


 380:modbus_rtu.c  ****                             & coil_bit_padding_with_zero[modulo_coil_start_address - 1]);
 1318              		.loc 1 380 0
 1319 01d6 16F8083C 		ldrb	r3, [r6, #-8]	@ zero_extendqisi2
 376:modbus_rtu.c  ****                             (modbus_response_coil_temp[coil_address_index] 
 1320              		.loc 1 376 0
 1321 01da 0BEA0808 		and	r8, fp, r8
 1322 01de 1840     		ands	r0, r0, r3
 1323 01e0 48EA0008 		orr	r8, r8, r0
 1324 01e4 0AF80580 		strb	r8, [r10, r5]
 381:modbus_rtu.c  ****                             coil_address_index++;
 1325              		.loc 1 381 0
 1326 01e8 0135     		adds	r5, r5, #1
 1327              	.LVL150:
 1328 01ea EDB2     		uxtb	r5, r5
 1329              	.LVL151:
 1330 01ec 58E0     		b	.L67
 1331              	.L66:
 382:modbus_rtu.c  ****                         }
 383:modbus_rtu.c  ****                         else if((u == *(modbus_received_data + 6) - 1) && u >= 1)
 1332              		.loc 1 383 0
 1333 01ee 013B     		subs	r3, r3, #1
 1334 01f0 9F42     		cmp	r7, r3
 1335 01f2 42D1     		bne	.L68
 1336              		.loc 1 383 0 is_stmt 0 discriminator 1
 1337 01f4 002F     		cmp	r7, #0
 1338 01f6 40D0     		beq	.L68
 384:modbus_rtu.c  ****                         {
 385:modbus_rtu.c  ****                             if(((modulo_coil_start_address + modulo_quantity_of_coils) % 8) != 0)
 1339              		.loc 1 385 0 is_stmt 1
 1340 01f8 029B     		ldr	r3, [sp, #8]
 1341 01fa 4B44     		add	r3, r3, r9
 1342 01fc 13F00703 		ands	r3, r3, #7
 1343 0200 28D0     		beq	.L69
 386:modbus_rtu.c  ****                             {
 387:modbus_rtu.c  ****                                 if(*(modbus_received_data + 7 + u) == 0x05)
 1344              		.loc 1 387 0
 1345 0202 FA1D     		adds	r2, r7, #7
 1346 0204 A65C     		ldrb	r6, [r4, r2]	@ zero_extendqisi2
 1347 0206 052E     		cmp	r6, #5
 1348 0208 4AD1     		bne	.L67
 388:modbus_rtu.c  ****                                     modbus_response_coil_temp[coil_address_index] = 
 389:modbus_rtu.c  ****                                     (modbus_response_coil_temp[coil_address_index] & coil_bit_paddi
 1349              		.loc 1 389 0
 1350 020a DFF804B1 		ldr	fp, .L89+20
 1351 020e 1BF80520 		ldrb	r2, [fp, r5]	@ zero_extendqisi2
 1352 0212 0492     		str	r2, [sp, #16]
 1353 0214 013B     		subs	r3, r3, #1
 1354 0216 0AA9     		add	r1, sp, #40
 1355 0218 01EB030A 		add	r10, r1, r3
 1356 021c 1AF8081C 		ldrb	r1, [r10, #-8]	@ zero_extendqisi2
 1357 0220 0591     		str	r1, [sp, #20]
 390:modbus_rtu.c  ****                                     | (((reverse_data(*(modbus_received_data + 7 + u - 1)) << (8 - 
 1358              		.loc 1 390 0
 1359 0222 BB1D     		adds	r3, r7, #6
 1360 0224 E05C     		ldrb	r0, [r4, r3]	@ zero_extendqisi2
 1361 0226 FFF7FEFF 		bl	reverse_data
 1362              	.LVL152:
ARM GAS  C:\Users\Shaunak\AppData\Local\Temp\ccVo5zvX.s 			page 32


 1363 022a C9F10808 		rsb	r8, r9, #8
 1364 022e 00FA08F8 		lsl	r8, r0, r8
 391:modbus_rtu.c  ****                                     | (reverse_data(*(modbus_received_data + 7 + u)) >> (modulo_coi
 1365              		.loc 1 391 0
 1366 0232 3046     		mov	r0, r6
 1367 0234 FFF7FEFF 		bl	reverse_data
 1368              	.LVL153:
 1369 0238 40FA09F0 		asr	r0, r0, r9
 392:modbus_rtu.c  ****                                     & coil_bit_padding_with_one[((modulo_coil_start_address + modul
 1370              		.loc 1 392 0
 1371 023c 1AF8103C 		ldrb	r3, [r10, #-16]	@ zero_extendqisi2
 388:modbus_rtu.c  ****                                     (modbus_response_coil_temp[coil_address_index] & coil_bit_paddi
 1372              		.loc 1 388 0
 1373 0240 48EA0002 		orr	r2, r8, r0
 1374 0244 1A40     		ands	r2, r2, r3
 1375 0246 049B     		ldr	r3, [sp, #16]
 1376 0248 0599     		ldr	r1, [sp, #20]
 1377 024a 0B40     		ands	r3, r3, r1
 1378 024c 1343     		orrs	r3, r3, r2
 1379 024e 0BF80530 		strb	r3, [fp, r5]
 1380 0252 25E0     		b	.L67
 1381              	.L69:
 393:modbus_rtu.c  ****                             }
 394:modbus_rtu.c  ****                             else
 395:modbus_rtu.c  ****                             {
 396:modbus_rtu.c  ****                                 modbus_response_coil_temp[coil_address_index] = 
 397:modbus_rtu.c  ****                                 (modbus_response_coil_temp[coil_address_index] & 0x00) 
 398:modbus_rtu.c  ****                                 | ((reverse_data(*(modbus_received_data + 7 + u - 1)) << (8 - modul
 1382              		.loc 1 398 0
 1383 0254 BB1D     		adds	r3, r7, #6
 1384 0256 E05C     		ldrb	r0, [r4, r3]	@ zero_extendqisi2
 1385 0258 FFF7FEFF 		bl	reverse_data
 1386              	.LVL154:
 1387 025c C9F10803 		rsb	r3, r9, #8
 1388 0260 00FA03F6 		lsl	r6, r0, r3
 399:modbus_rtu.c  ****                                 | ((reverse_data(*(modbus_received_data + 7 + u)) >> (modulo_coil_s
 1389              		.loc 1 399 0
 1390 0264 FB1D     		adds	r3, r7, #7
 1391 0266 E05C     		ldrb	r0, [r4, r3]	@ zero_extendqisi2
 1392 0268 FFF7FEFF 		bl	reverse_data
 1393              	.LVL155:
 1394 026c 40FA09F0 		asr	r0, r0, r9
 396:modbus_rtu.c  ****                                 (modbus_response_coil_temp[coil_address_index] & 0x00) 
 1395              		.loc 1 396 0
 1396 0270 46EA0003 		orr	r3, r6, r0
 1397 0274 264A     		ldr	r2, .L89+20
 1398 0276 5355     		strb	r3, [r2, r5]
 1399 0278 12E0     		b	.L67
 1400              	.L68:
 400:modbus_rtu.c  ****                             }
 401:modbus_rtu.c  ****                         }
 402:modbus_rtu.c  ****                         else
 403:modbus_rtu.c  ****                         {
 404:modbus_rtu.c  ****                             modbus_response_coil_temp[coil_address_index] = 
 405:modbus_rtu.c  ****                             (modbus_response_coil_temp[coil_address_index] & 0x00) 
 406:modbus_rtu.c  ****                             | ((reverse_data(*(modbus_received_data + 7 + u - 1)) << (8 - modulo_co
 1401              		.loc 1 406 0
ARM GAS  C:\Users\Shaunak\AppData\Local\Temp\ccVo5zvX.s 			page 33


 1402 027a BB1D     		adds	r3, r7, #6
 1403 027c E05C     		ldrb	r0, [r4, r3]	@ zero_extendqisi2
 1404 027e FFF7FEFF 		bl	reverse_data
 1405              	.LVL156:
 1406 0282 C9F10806 		rsb	r6, r9, #8
 1407 0286 00FA06F6 		lsl	r6, r0, r6
 407:modbus_rtu.c  ****                             | ((reverse_data(*(modbus_received_data + 7 + u)) >> (modulo_coil_start
 1408              		.loc 1 407 0
 1409 028a FB1D     		adds	r3, r7, #7
 1410 028c E05C     		ldrb	r0, [r4, r3]	@ zero_extendqisi2
 1411 028e FFF7FEFF 		bl	reverse_data
 1412              	.LVL157:
 1413 0292 40FA09F0 		asr	r0, r0, r9
 404:modbus_rtu.c  ****                             (modbus_response_coil_temp[coil_address_index] & 0x00) 
 1414              		.loc 1 404 0
 1415 0296 3043     		orrs	r0, r0, r6
 1416 0298 1D4B     		ldr	r3, .L89+20
 1417 029a 5855     		strb	r0, [r3, r5]
 408:modbus_rtu.c  ****                             coil_address_index++;
 1418              		.loc 1 408 0
 1419 029c 0135     		adds	r5, r5, #1
 1420              	.LVL158:
 1421 029e EDB2     		uxtb	r5, r5
 1422              	.LVL159:
 1423              	.L67:
 362:modbus_rtu.c  ****                     {
 1424              		.loc 1 362 0 discriminator 2
 1425 02a0 0137     		adds	r7, r7, #1
 1426              	.LVL160:
 1427 02a2 FFB2     		uxtb	r7, r7
 1428              	.LVL161:
 1429 02a4 03E0     		b	.L62
 1430              	.LVL162:
 1431              	.L84:
 1432 02a6 0027     		movs	r7, #0
 1433              	.LVL163:
 1434 02a8 CDF808B0 		str	fp, [sp, #8]
 1435 02ac 0396     		str	r6, [sp, #12]
 1436              	.LVL164:
 1437              	.L62:
 362:modbus_rtu.c  ****                     {
 1438              		.loc 1 362 0 is_stmt 0 discriminator 1
 1439 02ae A379     		ldrb	r3, [r4, #6]	@ zero_extendqisi2
 1440 02b0 9F42     		cmp	r7, r3
 1441 02b2 FFF45CAF 		bcc	.L70
 1442 02b6 7BE7     		b	.L57
 1443              	.LVL165:
 1444              	.L87:
 409:modbus_rtu.c  ****                         }
 410:modbus_rtu.c  ****                     }    
 411:modbus_rtu.c  ****                 }
 412:modbus_rtu.c  ****                 else if((modulo_coil_start_address + quantity_of_coils) > 8)
 1445              		.loc 1 412 0 is_stmt 1
 1446 02b8 019B     		ldr	r3, [sp, #4]
 1447 02ba 082B     		cmp	r3, #8
 1448 02bc 64DC     		bgt	.L85
 1449 02be 77E7     		b	.L57
ARM GAS  C:\Users\Shaunak\AppData\Local\Temp\ccVo5zvX.s 			page 34


 1450              	.LVL166:
 1451              	.L75:
 413:modbus_rtu.c  ****                 {
 414:modbus_rtu.c  ****                     for(u = 0; u < (*(modbus_received_data + 6) + 1); u++)
 415:modbus_rtu.c  ****                     {
 416:modbus_rtu.c  ****                         if(u == 0)
 1452              		.loc 1 416 0
 1453 02c0 46BB     		cbnz	r6, .L72
 417:modbus_rtu.c  ****                         {
 418:modbus_rtu.c  ****                             modbus_response_coil_temp[coil_address_index] = 
 419:modbus_rtu.c  ****                             (modbus_response_coil_temp[coil_address_index] 
 1454              		.loc 1 419 0
 1455 02c2 DFF84CA0 		ldr	r10, .L89+20
 1456 02c6 1AF805B0 		ldrb	fp, [r10, r5]	@ zero_extendqisi2
 420:modbus_rtu.c  ****                             & coil_bit_padding_with_one[modulo_coil_start_address - 1]) 
 1457              		.loc 1 420 0
 1458 02ca 09F1FF37 		add	r7, r9, #-1
 1459 02ce 0AAB     		add	r3, sp, #40
 1460 02d0 1F44     		add	r7, r7, r3
 1461 02d2 17F8108C 		ldrb	r8, [r7, #-16]	@ zero_extendqisi2
 421:modbus_rtu.c  ****                             | (reverse_data(*(modbus_received_data + 7 + u)) >> (modulo_coil_start_
 1462              		.loc 1 421 0
 1463 02d6 F31D     		adds	r3, r6, #7
 1464 02d8 E05C     		ldrb	r0, [r4, r3]	@ zero_extendqisi2
 1465 02da FFF7FEFF 		bl	reverse_data
 1466              	.LVL167:
 1467 02de 40FA09F0 		asr	r0, r0, r9
 422:modbus_rtu.c  ****                             & coil_bit_padding_with_zero[modulo_coil_start_address - 1]);
 1468              		.loc 1 422 0
 1469 02e2 17F8082C 		ldrb	r2, [r7, #-8]	@ zero_extendqisi2
 418:modbus_rtu.c  ****                             (modbus_response_coil_temp[coil_address_index] 
 1470              		.loc 1 418 0
 1471 02e6 0BEA0808 		and	r8, fp, r8
 1472 02ea 00EA0203 		and	r3, r0, r2
 1473 02ee 48EA0303 		orr	r3, r8, r3
 1474 02f2 0AF80530 		strb	r3, [r10, r5]
 423:modbus_rtu.c  ****                             coil_address_index++;
 1475              		.loc 1 423 0
 1476 02f6 0135     		adds	r5, r5, #1
 1477              	.LVL168:
 1478 02f8 EDB2     		uxtb	r5, r5
 1479              	.LVL169:
 1480 02fa 42E0     		b	.L73
 1481              	.L90:
 1482              		.align	2
 1483              	.L89:
 1484 02fc 00000000 		.word	crc16
 1485 0300 00000000 		.word	modbus_response_data_length
 1486 0304 00000000 		.word	modbus_response_force_multiple_coils
 1487 0308 00000000 		.word	modbus_response_read_coil
 1488 030c 00000000 		.word	.LANCHOR0
 1489 0310 00000000 		.word	modbus_response_coil_temp
 1490              	.L72:
 424:modbus_rtu.c  ****                         }
 425:modbus_rtu.c  ****                         else if((u == *(modbus_received_data + 6)) && u >= 1)
 1491              		.loc 1 425 0
 1492 0314 9E42     		cmp	r6, r3
ARM GAS  C:\Users\Shaunak\AppData\Local\Temp\ccVo5zvX.s 			page 35


 1493 0316 20D1     		bne	.L74
 1494              		.loc 1 425 0 is_stmt 0 discriminator 1
 1495 0318 FEB1     		cbz	r6, .L74
 426:modbus_rtu.c  ****                         {
 427:modbus_rtu.c  ****                             modbus_response_coil_temp[coil_address_index] = 
 428:modbus_rtu.c  ****                             (modbus_response_coil_temp[coil_address_index] & coil_bit_padding_with_
 1496              		.loc 1 428 0 is_stmt 1
 1497 031a DFF86481 		ldr	r8, .L91
 1498 031e 18F805A0 		ldrb	r10, [r8, r5]	@ zero_extendqisi2
 1499 0322 019B     		ldr	r3, [sp, #4]
 1500 0324 03EB0907 		add	r7, r3, r9
 1501 0328 07F00707 		and	r7, r7, #7
 1502 032c 013F     		subs	r7, r7, #1
 1503 032e 0AAB     		add	r3, sp, #40
 1504 0330 1F44     		add	r7, r7, r3
 1505 0332 17F808BC 		ldrb	fp, [r7, #-8]	@ zero_extendqisi2
 429:modbus_rtu.c  ****                             | ((reverse_data(*(modbus_received_data + 7 + u - 1)) << (8 - modulo_co
 1506              		.loc 1 429 0
 1507 0336 B31D     		adds	r3, r6, #6
 1508 0338 E05C     		ldrb	r0, [r4, r3]	@ zero_extendqisi2
 1509 033a FFF7FEFF 		bl	reverse_data
 1510              	.LVL170:
 1511 033e C9F10803 		rsb	r3, r9, #8
 1512 0342 9840     		lsls	r0, r0, r3
 430:modbus_rtu.c  ****                             & coil_bit_padding_with_one[((modulo_coil_start_address + modulo_quanti
 1513              		.loc 1 430 0
 1514 0344 17F8102C 		ldrb	r2, [r7, #-16]	@ zero_extendqisi2
 427:modbus_rtu.c  ****                             (modbus_response_coil_temp[coil_address_index] & coil_bit_padding_with_
 1515              		.loc 1 427 0
 1516 0348 0AEA0B0A 		and	r10, r10, fp
 1517 034c 00EA0203 		and	r3, r0, r2
 1518 0350 4AEA0303 		orr	r3, r10, r3
 1519 0354 08F80530 		strb	r3, [r8, r5]
 1520 0358 13E0     		b	.L73
 1521              	.L74:
 431:modbus_rtu.c  ****                         }
 432:modbus_rtu.c  ****                         else
 433:modbus_rtu.c  ****                         {
 434:modbus_rtu.c  ****                             modbus_response_coil_temp[coil_address_index] = 
 435:modbus_rtu.c  ****                             (modbus_response_coil_temp[coil_address_index] & 0x00) 
 436:modbus_rtu.c  ****                             | ((reverse_data(*(modbus_received_data + 7 + u - 1)) << (8 - modulo_co
 1522              		.loc 1 436 0
 1523 035a B31D     		adds	r3, r6, #6
 1524 035c E05C     		ldrb	r0, [r4, r3]	@ zero_extendqisi2
 1525 035e FFF7FEFF 		bl	reverse_data
 1526              	.LVL171:
 1527 0362 C9F10803 		rsb	r3, r9, #8
 1528 0366 00FA03F7 		lsl	r7, r0, r3
 437:modbus_rtu.c  ****                             | ((reverse_data(*(modbus_received_data + 7 + u)) >> (modulo_coil_start
 1529              		.loc 1 437 0
 1530 036a F31D     		adds	r3, r6, #7
 1531 036c E05C     		ldrb	r0, [r4, r3]	@ zero_extendqisi2
 1532 036e FFF7FEFF 		bl	reverse_data
 1533              	.LVL172:
 1534 0372 40FA09F0 		asr	r0, r0, r9
 434:modbus_rtu.c  ****                             (modbus_response_coil_temp[coil_address_index] & 0x00) 
 1535              		.loc 1 434 0
ARM GAS  C:\Users\Shaunak\AppData\Local\Temp\ccVo5zvX.s 			page 36


 1536 0376 47EA0003 		orr	r3, r7, r0
 1537 037a 414A     		ldr	r2, .L91
 1538 037c 5355     		strb	r3, [r2, r5]
 438:modbus_rtu.c  ****                             coil_address_index++;
 1539              		.loc 1 438 0
 1540 037e 0135     		adds	r5, r5, #1
 1541              	.LVL173:
 1542 0380 EDB2     		uxtb	r5, r5
 1543              	.LVL174:
 1544              	.L73:
 414:modbus_rtu.c  ****                     {
 1545              		.loc 1 414 0 discriminator 2
 1546 0382 0136     		adds	r6, r6, #1
 1547              	.LVL175:
 1548 0384 F6B2     		uxtb	r6, r6
 1549              	.LVL176:
 1550 0386 02E0     		b	.L71
 1551              	.LVL177:
 1552              	.L85:
 1553 0388 0026     		movs	r6, #0
 1554 038a CDF804B0 		str	fp, [sp, #4]
 1555              	.LVL178:
 1556              	.L71:
 414:modbus_rtu.c  ****                     {
 1557              		.loc 1 414 0 is_stmt 0 discriminator 1
 1558 038e A379     		ldrb	r3, [r4, #6]	@ zero_extendqisi2
 1559 0390 5A1C     		adds	r2, r3, #1
 1560 0392 9642     		cmp	r6, r2
 1561 0394 94DB     		blt	.L75
 1562 0396 0BE7     		b	.L57
 1563              	.LVL179:
 1564              	.L61:
 439:modbus_rtu.c  ****                         }
 440:modbus_rtu.c  ****                     }    
 441:modbus_rtu.c  ****                 }
 442:modbus_rtu.c  ****             }    
 443:modbus_rtu.c  ****             else if(modulo_coil_start_address != 0 && modulo_quantity_of_coils == 0)
 1565              		.loc 1 443 0 is_stmt 1
 1566 0398 002E     		cmp	r6, #0
 1567 039a 3FF409AF 		beq	.L57
 1568              		.loc 1 443 0 is_stmt 0 discriminator 1
 1569 039e BBF1000F 		cmp	fp, #0
 1570 03a2 50D0     		beq	.L86
 1571 03a4 04E7     		b	.L57
 1572              	.LVL180:
 1573              	.L80:
 444:modbus_rtu.c  ****             {
 445:modbus_rtu.c  ****                 for(u = 0; u < *(modbus_received_data + 6) + 1; u++)
 446:modbus_rtu.c  ****                 {
 447:modbus_rtu.c  ****                     if(u == 0)
 1574              		.loc 1 447 0 is_stmt 1
 1575 03a6 D7B9     		cbnz	r7, .L77
 448:modbus_rtu.c  ****                     {
 449:modbus_rtu.c  ****                         modbus_response_coil_temp[coil_address_index] = 
 450:modbus_rtu.c  ****                         (modbus_response_coil_temp[coil_address_index] 
 1576              		.loc 1 450 0
 1577 03a8 DFF8D480 		ldr	r8, .L91
ARM GAS  C:\Users\Shaunak\AppData\Local\Temp\ccVo5zvX.s 			page 37


 1578 03ac 18F805A0 		ldrb	r10, [r8, r5]	@ zero_extendqisi2
 451:modbus_rtu.c  ****                         & coil_bit_padding_with_one[modulo_coil_start_address - 1]) 
 1579              		.loc 1 451 0
 1580 03b0 06F1FF3B 		add	fp, r6, #-1
 1581 03b4 0AAB     		add	r3, sp, #40
 1582 03b6 9B44     		add	fp, fp, r3
 1583 03b8 1BF8109C 		ldrb	r9, [fp, #-16]	@ zero_extendqisi2
 452:modbus_rtu.c  ****                         | ((reverse_data(*(modbus_received_data + 7 + u)) >> (modulo_coil_start_add
 1584              		.loc 1 452 0
 1585 03bc FB1D     		adds	r3, r7, #7
 1586 03be E05C     		ldrb	r0, [r4, r3]	@ zero_extendqisi2
 1587 03c0 FFF7FEFF 		bl	reverse_data
 1588              	.LVL181:
 1589 03c4 3041     		asrs	r0, r0, r6
 453:modbus_rtu.c  ****                         & coil_bit_padding_with_zero[modulo_coil_start_address - 1]);
 1590              		.loc 1 453 0
 1591 03c6 1BF8082C 		ldrb	r2, [fp, #-8]	@ zero_extendqisi2
 449:modbus_rtu.c  ****                         (modbus_response_coil_temp[coil_address_index] 
 1592              		.loc 1 449 0
 1593 03ca 0AEA0909 		and	r9, r10, r9
 1594 03ce 1040     		ands	r0, r0, r2
 1595 03d0 49EA0003 		orr	r3, r9, r0
 1596 03d4 08F80530 		strb	r3, [r8, r5]
 454:modbus_rtu.c  ****                         coil_address_index++;
 1597              		.loc 1 454 0
 1598 03d8 0135     		adds	r5, r5, #1
 1599              	.LVL182:
 1600 03da EDB2     		uxtb	r5, r5
 1601              	.LVL183:
 1602 03dc 30E0     		b	.L78
 1603              	.L77:
 455:modbus_rtu.c  ****                     }    
 456:modbus_rtu.c  ****                     else if(u == *(modbus_received_data + 6))
 1604              		.loc 1 456 0
 1605 03de 9F42     		cmp	r7, r3
 1606 03e0 1BD1     		bne	.L79
 457:modbus_rtu.c  ****                     {
 458:modbus_rtu.c  ****                         modbus_response_coil_temp[coil_address_index] = 
 459:modbus_rtu.c  ****                         (modbus_response_coil_temp[coil_address_index] 
 1607              		.loc 1 459 0
 1608 03e2 DFF89C80 		ldr	r8, .L91
 1609 03e6 18F805A0 		ldrb	r10, [r8, r5]	@ zero_extendqisi2
 460:modbus_rtu.c  ****                         & coil_bit_padding_with_zero[modulo_coil_start_address - 1]) 
 1610              		.loc 1 460 0
 1611 03ea 06F1FF3B 		add	fp, r6, #-1
 1612 03ee 0AAB     		add	r3, sp, #40
 1613 03f0 9B44     		add	fp, fp, r3
 1614 03f2 1BF8089C 		ldrb	r9, [fp, #-8]	@ zero_extendqisi2
 461:modbus_rtu.c  ****                         | ((reverse_data(*(modbus_received_data + 7 + u - 1)) << (8 - modulo_coil_s
 1615              		.loc 1 461 0
 1616 03f6 BB1D     		adds	r3, r7, #6
 1617 03f8 E05C     		ldrb	r0, [r4, r3]	@ zero_extendqisi2
 1618 03fa FFF7FEFF 		bl	reverse_data
 1619              	.LVL184:
 1620 03fe C6F10803 		rsb	r3, r6, #8
 1621 0402 9840     		lsls	r0, r0, r3
 462:modbus_rtu.c  ****                         & coil_bit_padding_with_one[modulo_coil_start_address - 1]);
ARM GAS  C:\Users\Shaunak\AppData\Local\Temp\ccVo5zvX.s 			page 38


 1622              		.loc 1 462 0
 1623 0404 1BF8102C 		ldrb	r2, [fp, #-16]	@ zero_extendqisi2
 458:modbus_rtu.c  ****                         (modbus_response_coil_temp[coil_address_index] 
 1624              		.loc 1 458 0
 1625 0408 0AEA0909 		and	r9, r10, r9
 1626 040c 00EA0203 		and	r3, r0, r2
 1627 0410 49EA0303 		orr	r3, r9, r3
 1628 0414 08F80530 		strb	r3, [r8, r5]
 1629 0418 12E0     		b	.L78
 1630              	.L79:
 463:modbus_rtu.c  ****                     }
 464:modbus_rtu.c  ****                     else
 465:modbus_rtu.c  ****                     {
 466:modbus_rtu.c  ****                         modbus_response_coil_temp[coil_address_index] = 
 467:modbus_rtu.c  ****                         (modbus_response_coil_temp[coil_address_index] & 0x00) 
 468:modbus_rtu.c  ****                         | (reverse_data(*(modbus_received_data + 7 + u - 1)) << (8 - modulo_coil_st
 1631              		.loc 1 468 0
 1632 041a BB1D     		adds	r3, r7, #6
 1633 041c E05C     		ldrb	r0, [r4, r3]	@ zero_extendqisi2
 1634 041e FFF7FEFF 		bl	reverse_data
 1635              	.LVL185:
 1636 0422 C6F10808 		rsb	r8, r6, #8
 1637 0426 00FA08F8 		lsl	r8, r0, r8
 469:modbus_rtu.c  ****                         | (reverse_data(*(modbus_received_data + 7 + u)) >> (modulo_coil_start_addr
 1638              		.loc 1 469 0
 1639 042a FB1D     		adds	r3, r7, #7
 1640 042c E05C     		ldrb	r0, [r4, r3]	@ zero_extendqisi2
 1641 042e FFF7FEFF 		bl	reverse_data
 1642              	.LVL186:
 1643 0432 3041     		asrs	r0, r0, r6
 466:modbus_rtu.c  ****                         (modbus_response_coil_temp[coil_address_index] & 0x00) 
 1644              		.loc 1 466 0
 1645 0434 48EA0000 		orr	r0, r8, r0
 1646 0438 114B     		ldr	r3, .L91
 1647 043a 5855     		strb	r0, [r3, r5]
 470:modbus_rtu.c  ****                         coil_address_index++;
 1648              		.loc 1 470 0
 1649 043c 0135     		adds	r5, r5, #1
 1650              	.LVL187:
 1651 043e EDB2     		uxtb	r5, r5
 1652              	.LVL188:
 1653              	.L78:
 445:modbus_rtu.c  ****                 {
 1654              		.loc 1 445 0 discriminator 2
 1655 0440 0137     		adds	r7, r7, #1
 1656              	.LVL189:
 1657 0442 FFB2     		uxtb	r7, r7
 1658              	.LVL190:
 1659 0444 00E0     		b	.L76
 1660              	.LVL191:
 1661              	.L86:
 1662 0446 0027     		movs	r7, #0
 1663              	.LVL192:
 1664              	.L76:
 445:modbus_rtu.c  ****                 {
 1665              		.loc 1 445 0 is_stmt 0 discriminator 1
 1666 0448 A379     		ldrb	r3, [r4, #6]	@ zero_extendqisi2
ARM GAS  C:\Users\Shaunak\AppData\Local\Temp\ccVo5zvX.s 			page 39


 1667 044a 5A1C     		adds	r2, r3, #1
 1668 044c 9742     		cmp	r7, r2
 1669 044e AADB     		blt	.L80
 1670 0450 AEE6     		b	.L57
 1671              	.LVL193:
 1672              	.L81:
 471:modbus_rtu.c  ****                     }
 472:modbus_rtu.c  ****                 }    
 473:modbus_rtu.c  ****             }
 474:modbus_rtu.c  ****             uint8_t v;
 475:modbus_rtu.c  ****             for(v = 0; v < 6; v++)
 476:modbus_rtu.c  ****             {
 477:modbus_rtu.c  ****                 modbus_response_force_multiple_coils[v] = (*(modbus_received_data + v));
 1673              		.loc 1 477 0 is_stmt 1 discriminator 3
 1674 0452 E15C     		ldrb	r1, [r4, r3]	@ zero_extendqisi2
 1675 0454 0B4A     		ldr	r2, .L91+4
 1676 0456 D154     		strb	r1, [r2, r3]
 475:modbus_rtu.c  ****             {
 1677              		.loc 1 475 0 discriminator 3
 1678 0458 0133     		adds	r3, r3, #1
 1679              	.LVL194:
 1680 045a DBB2     		uxtb	r3, r3
 1681              	.LVL195:
 1682              	.L65:
 475:modbus_rtu.c  ****             {
 1683              		.loc 1 475 0 is_stmt 0 discriminator 1
 1684 045c 052B     		cmp	r3, #5
 1685 045e F8D9     		bls	.L81
 478:modbus_rtu.c  ****             }
 479:modbus_rtu.c  ****             modbus_response_data_length = 8;
 1686              		.loc 1 479 0 is_stmt 1
 1687 0460 0822     		movs	r2, #8
 1688 0462 094B     		ldr	r3, .L91+8
 1689              	.LVL196:
 1690 0464 1A70     		strb	r2, [r3]
 480:modbus_rtu.c  ****             crc16 = CRC16(& modbus_response_force_multiple_coils[0], modbus_response_data_length - 
 1691              		.loc 1 480 0
 1692 0466 074C     		ldr	r4, .L91+4
 1693              	.LVL197:
 1694 0468 0621     		movs	r1, #6
 1695 046a 2046     		mov	r0, r4
 1696 046c FFF7FEFF 		bl	CRC16
 1697              	.LVL198:
 1698 0470 064B     		ldr	r3, .L91+12
 1699 0472 1880     		strh	r0, [r3]	@ movhi
 481:modbus_rtu.c  ****             modbus_response_force_multiple_coils[modbus_response_data_length - 2] = (uint8_t)(crc16
 1700              		.loc 1 481 0
 1701 0474 030A     		lsrs	r3, r0, #8
 1702 0476 A371     		strb	r3, [r4, #6]
 482:modbus_rtu.c  ****             modbus_response_force_multiple_coils[modbus_response_data_length - 1] = (uint8_t)(crc16
 1703              		.loc 1 482 0
 1704 0478 E071     		strb	r0, [r4, #7]
 1705              	.LVL199:
 1706              	.L50:
 1707              	.LBE9:
 1708              	.LBE8:
 483:modbus_rtu.c  ****         }
ARM GAS  C:\Users\Shaunak\AppData\Local\Temp\ccVo5zvX.s 			page 40


 484:modbus_rtu.c  ****     }    
 485:modbus_rtu.c  **** }
 1709              		.loc 1 485 0
 1710 047a 0BB0     		add	sp, sp, #44
 1711              		.cfi_def_cfa_offset 36
 1712              		@ sp needed
 1713 047c BDE8F08F 		pop	{r4, r5, r6, r7, r8, r9, r10, fp, pc}
 1714              	.L92:
 1715              		.align	2
 1716              	.L91:
 1717 0480 00000000 		.word	modbus_response_coil_temp
 1718 0484 00000000 		.word	modbus_response_force_multiple_coils
 1719 0488 00000000 		.word	modbus_response_data_length
 1720 048c 00000000 		.word	crc16
 1721              		.cfi_endproc
 1722              	.LFE5:
 1723              		.size	query_response_force_multiple_coils, .-query_response_force_multiple_coils
 1724              		.section	.text.query_response_read_holding_registers,"ax",%progbits
 1725              		.align	2
 1726              		.global	query_response_read_holding_registers
 1727              		.thumb
 1728              		.thumb_func
 1729              		.type	query_response_read_holding_registers, %function
 1730              	query_response_read_holding_registers:
 1731              	.LFB6:
 486:modbus_rtu.c  **** void query_response_read_holding_registers(uint8_t *modbus_received_data, uint8_t number_of_bytes)
 487:modbus_rtu.c  **** {
 1732              		.loc 1 487 0
 1733              		.cfi_startproc
 1734              		@ args = 0, pretend = 0, frame = 0
 1735              		@ frame_needed = 0, uses_anonymous_args = 0
 1736              	.LVL200:
 1737 0000 F8B5     		push	{r3, r4, r5, r6, r7, lr}
 1738              		.cfi_def_cfa_offset 24
 1739              		.cfi_offset 3, -24
 1740              		.cfi_offset 4, -20
 1741              		.cfi_offset 5, -16
 1742              		.cfi_offset 6, -12
 1743              		.cfi_offset 7, -8
 1744              		.cfi_offset 14, -4
 1745 0002 0546     		mov	r5, r0
 1746 0004 0C46     		mov	r4, r1
 488:modbus_rtu.c  ****     crc16 = CRC16(&(*(modbus_received_data + 0)), number_of_bytes - 2);
 1747              		.loc 1 488 0
 1748 0006 0239     		subs	r1, r1, #2
 1749              	.LVL201:
 1750 0008 89B2     		uxth	r1, r1
 1751 000a FFF7FEFF 		bl	CRC16
 1752              	.LVL202:
 1753 000e 414B     		ldr	r3, .L102
 1754 0010 1880     		strh	r0, [r3]	@ movhi
 489:modbus_rtu.c  ****     if(((uint16_t)(*(modbus_received_data + number_of_bytes - 2)) == (crc16 >> 8)) && ((uint16_t)(*
 1755              		.loc 1 489 0
 1756 0012 A31E     		subs	r3, r4, #2
 1757 0014 EB5C     		ldrb	r3, [r5, r3]	@ zero_extendqisi2
 1758 0016 B3EB102F 		cmp	r3, r0, lsr #8
 1759 001a 79D1     		bne	.L93
ARM GAS  C:\Users\Shaunak\AppData\Local\Temp\ccVo5zvX.s 			page 41


 1760              		.loc 1 489 0 is_stmt 0 discriminator 1
 1761 001c 013C     		subs	r4, r4, #1
 1762 001e 2B5D     		ldrb	r3, [r5, r4]	@ zero_extendqisi2
 1763 0020 C0B2     		uxtb	r0, r0
 1764 0022 8342     		cmp	r3, r0
 1765 0024 74D1     		bne	.L93
 490:modbus_rtu.c  ****     {
 491:modbus_rtu.c  ****         if((*(modbus_received_data + 0)) == MODBUS_SLAVE_ADDRESS)
 1766              		.loc 1 491 0 is_stmt 1
 1767 0026 2A78     		ldrb	r2, [r5]	@ zero_extendqisi2
 1768 0028 012A     		cmp	r2, #1
 1769 002a 71D1     		bne	.L93
 1770              	.LBB10:
 492:modbus_rtu.c  ****         {
 493:modbus_rtu.c  ****             uint16_t holding_registers_count;
 494:modbus_rtu.c  ****             holding_registers_count = ((uint16_t)(*(modbus_received_data + 4)) << 8) | ((uint16_t)(
 1771              		.loc 1 494 0
 1772 002c 2979     		ldrb	r1, [r5, #4]	@ zero_extendqisi2
 1773 002e 6B79     		ldrb	r3, [r5, #5]	@ zero_extendqisi2
 1774 0030 43EA0121 		orr	r1, r3, r1, lsl #8
 1775 0034 09B2     		sxth	r1, r1
 1776 0036 8CB2     		uxth	r4, r1
 1777              	.LVL203:
 495:modbus_rtu.c  ****             uint16_t holding_registers_start_address;
 496:modbus_rtu.c  ****             holding_registers_start_address = (((uint16_t)(*(modbus_received_data + 2)) << 8) | ((u
 1778              		.loc 1 496 0
 1779 0038 AB78     		ldrb	r3, [r5, #2]	@ zero_extendqisi2
 1780 003a E878     		ldrb	r0, [r5, #3]	@ zero_extendqisi2
 1781 003c 40EA0323 		orr	r3, r0, r3, lsl #8
 1782              	.LVL204:
 497:modbus_rtu.c  ****             if(holding_registers_start_address >= NUMBER_OF_HOLDING_REGISTERS)
 1783              		.loc 1 497 0
 1784 0040 3F2B     		cmp	r3, #63
 1785 0042 14D9     		bls	.L95
 498:modbus_rtu.c  ****             {
 499:modbus_rtu.c  ****                 modbus_response_data_length = 5;
 1786              		.loc 1 499 0
 1787 0044 0522     		movs	r2, #5
 1788 0046 344B     		ldr	r3, .L102+4
 1789              	.LVL205:
 1790 0048 1A70     		strb	r2, [r3]
 500:modbus_rtu.c  ****                 modbus_response_read_holding_registers[0] = *(modbus_received_data + 0);
 1791              		.loc 1 500 0
 1792 004a 2B78     		ldrb	r3, [r5]	@ zero_extendqisi2
 1793 004c 334C     		ldr	r4, .L102+8
 1794              	.LVL206:
 1795 004e 2370     		strb	r3, [r4]
 1796              	.LVL207:
 501:modbus_rtu.c  ****                 modbus_response_read_holding_registers[1] = *(modbus_received_data + 1) + 128;
 1797              		.loc 1 501 0
 1798 0050 6B78     		ldrb	r3, [r5, #1]	@ zero_extendqisi2
 1799 0052 803B     		subs	r3, r3, #128
 1800 0054 6370     		strb	r3, [r4, #1]
 502:modbus_rtu.c  ****                 modbus_response_read_holding_registers[2] = 0x02;
 1801              		.loc 1 502 0
 1802 0056 0223     		movs	r3, #2
 1803 0058 A370     		strb	r3, [r4, #2]
ARM GAS  C:\Users\Shaunak\AppData\Local\Temp\ccVo5zvX.s 			page 42


 503:modbus_rtu.c  ****                 crc16 = CRC16(&modbus_response_read_coil[0], 3); 
 1804              		.loc 1 503 0
 1805 005a 0321     		movs	r1, #3
 1806              	.LVL208:
 1807 005c 3048     		ldr	r0, .L102+12
 1808 005e FFF7FEFF 		bl	CRC16
 1809              	.LVL209:
 1810 0062 2C4B     		ldr	r3, .L102
 1811 0064 1880     		strh	r0, [r3]	@ movhi
 504:modbus_rtu.c  ****                 modbus_response_read_holding_registers[3] = (uint8_t)(crc16 >> 8);
 1812              		.loc 1 504 0
 1813 0066 030A     		lsrs	r3, r0, #8
 1814 0068 E370     		strb	r3, [r4, #3]
 505:modbus_rtu.c  ****                 modbus_response_read_holding_registers[4] = (uint8_t)(crc16 & 0x00FF);
 1815              		.loc 1 505 0
 1816 006a 2071     		strb	r0, [r4, #4]
 1817 006c F8BD     		pop	{r3, r4, r5, r6, r7, pc}
 1818              	.LVL210:
 1819              	.L95:
 506:modbus_rtu.c  ****             }
 507:modbus_rtu.c  ****             else if((holding_registers_start_address + holding_registers_count) >= (NUMBER_OF_HOLDI
 1820              		.loc 1 507 0
 1821 006e 1F46     		mov	r7, r3
 1822 0070 2646     		mov	r6, r4
 1823 0072 2344     		add	r3, r3, r4
 1824              	.LVL211:
 1825 0074 402B     		cmp	r3, #64
 1826 0076 13DD     		ble	.L96
 508:modbus_rtu.c  ****             {
 509:modbus_rtu.c  ****                 modbus_response_data_length = 5;
 1827              		.loc 1 509 0
 1828 0078 0522     		movs	r2, #5
 1829 007a 274B     		ldr	r3, .L102+4
 1830 007c 1A70     		strb	r2, [r3]
 510:modbus_rtu.c  ****                 modbus_response_read_holding_registers[0] = *(modbus_received_data + 0);
 1831              		.loc 1 510 0
 1832 007e 2B78     		ldrb	r3, [r5]	@ zero_extendqisi2
 1833 0080 264C     		ldr	r4, .L102+8
 1834              	.LVL212:
 1835 0082 2370     		strb	r3, [r4]
 511:modbus_rtu.c  ****                 modbus_response_read_holding_registers[1] = *(modbus_received_data + 1) + 128;
 1836              		.loc 1 511 0
 1837 0084 6B78     		ldrb	r3, [r5, #1]	@ zero_extendqisi2
 1838 0086 803B     		subs	r3, r3, #128
 1839 0088 6370     		strb	r3, [r4, #1]
 512:modbus_rtu.c  ****                 modbus_response_read_holding_registers[2] = 0x03;
 1840              		.loc 1 512 0
 1841 008a 0321     		movs	r1, #3
 1842 008c A170     		strb	r1, [r4, #2]
 513:modbus_rtu.c  ****                 crc16 = CRC16(&modbus_response_read_coil[0], 3); 
 1843              		.loc 1 513 0
 1844 008e 2448     		ldr	r0, .L102+12
 1845 0090 FFF7FEFF 		bl	CRC16
 1846              	.LVL213:
 1847 0094 1F4B     		ldr	r3, .L102
 1848 0096 1880     		strh	r0, [r3]	@ movhi
 514:modbus_rtu.c  ****                 modbus_response_read_holding_registers[3] = (uint8_t)(crc16 >> 8);
ARM GAS  C:\Users\Shaunak\AppData\Local\Temp\ccVo5zvX.s 			page 43


 1849              		.loc 1 514 0
 1850 0098 030A     		lsrs	r3, r0, #8
 1851 009a E370     		strb	r3, [r4, #3]
 515:modbus_rtu.c  ****                 modbus_response_read_holding_registers[4] = (uint8_t)(crc16 & 0x00FF);
 1852              		.loc 1 515 0
 1853 009c 2071     		strb	r0, [r4, #4]
 1854 009e F8BD     		pop	{r3, r4, r5, r6, r7, pc}
 1855              	.LVL214:
 1856              	.L96:
 1857              	.LBB11:
 516:modbus_rtu.c  ****             }
 517:modbus_rtu.c  ****             else
 518:modbus_rtu.c  ****             {
 519:modbus_rtu.c  ****                 //STATUS_LED_TOGGLE;
 520:modbus_rtu.c  ****                 modbus_response_read_holding_registers[0] = *(modbus_received_data + 0);
 1858              		.loc 1 520 0
 1859 00a0 1E4B     		ldr	r3, .L102+8
 1860 00a2 1A70     		strb	r2, [r3]
 521:modbus_rtu.c  ****                 modbus_response_read_holding_registers[1] = *(modbus_received_data + 1);
 1861              		.loc 1 521 0
 1862 00a4 6A78     		ldrb	r2, [r5, #1]	@ zero_extendqisi2
 1863 00a6 5A70     		strb	r2, [r3, #1]
 522:modbus_rtu.c  ****                 modbus_response_read_holding_registers[2] = holding_registers_count * 2; 
 1864              		.loc 1 522 0
 1865 00a8 4900     		lsls	r1, r1, #1
 1866 00aa C9B2     		uxtb	r1, r1
 1867 00ac 9970     		strb	r1, [r3, #2]
 1868              	.LVL215:
 523:modbus_rtu.c  ****                 uint8_t u = 0;
 524:modbus_rtu.c  ****                 for(u = 0; u < (holding_registers_count * 2); u++)
 1869              		.loc 1 524 0
 1870 00ae 0023     		movs	r3, #0
 1871 00b0 19E0     		b	.L97
 1872              	.LVL216:
 1873              	.L100:
 525:modbus_rtu.c  ****                 {
 526:modbus_rtu.c  ****                     if(u % 2 == 0)
 1874              		.loc 1 526 0
 1875 00b2 13F00100 		ands	r0, r3, #1
 1876 00b6 0BD1     		bne	.L98
 527:modbus_rtu.c  ****                     {
 528:modbus_rtu.c  ****                         modbus_response_read_holding_registers[u + 3] = (uint8_t)((modbus_holding_r
 1877              		.loc 1 528 0
 1878 00b8 D41C     		adds	r4, r2, #3
 1879 00ba 07EB5305 		add	r5, r7, r3, lsr #1
 1880 00be DFF864E0 		ldr	lr, .L102+16
 1881 00c2 3EF81550 		ldrh	r5, [lr, r5, lsl #1]
 1882 00c6 2D0A     		lsrs	r5, r5, #8
 1883 00c8 DFF850E0 		ldr	lr, .L102+8
 1884 00cc 0EF80450 		strb	r5, [lr, r4]
 1885              	.L98:
 529:modbus_rtu.c  ****                     }
 530:modbus_rtu.c  ****                     if(u % 2 != 0)
 1886              		.loc 1 530 0
 1887 00d0 38B1     		cbz	r0, .L99
 531:modbus_rtu.c  ****                     {
 532:modbus_rtu.c  ****                         modbus_response_read_holding_registers[u + 3] = (uint8_t)((modbus_holding_r
ARM GAS  C:\Users\Shaunak\AppData\Local\Temp\ccVo5zvX.s 			page 44


 1888              		.loc 1 532 0
 1889 00d2 0332     		adds	r2, r2, #3
 1890 00d4 07EB5300 		add	r0, r7, r3, lsr #1
 1891 00d8 124C     		ldr	r4, .L102+16
 1892 00da 14F81040 		ldrb	r4, [r4, r0, lsl #1]	@ zero_extendqisi2
 1893 00de 0F48     		ldr	r0, .L102+8
 1894 00e0 8454     		strb	r4, [r0, r2]
 1895              	.L99:
 524:modbus_rtu.c  ****                 {
 1896              		.loc 1 524 0 discriminator 2
 1897 00e2 0133     		adds	r3, r3, #1
 1898              	.LVL217:
 1899 00e4 DBB2     		uxtb	r3, r3
 1900              	.LVL218:
 1901              	.L97:
 524:modbus_rtu.c  ****                 {
 1902              		.loc 1 524 0 is_stmt 0 discriminator 1
 1903 00e6 1A46     		mov	r2, r3
 1904 00e8 B3EB460F 		cmp	r3, r6, lsl #1
 1905 00ec E1DB     		blt	.L100
 533:modbus_rtu.c  ****                     }                
 534:modbus_rtu.c  ****                }
 535:modbus_rtu.c  ****                modbus_response_data_length = 5 + (holding_registers_count * 2);
 1906              		.loc 1 535 0 is_stmt 1
 1907 00ee 0531     		adds	r1, r1, #5
 1908 00f0 CCB2     		uxtb	r4, r1
 1909 00f2 094B     		ldr	r3, .L102+4
 1910              	.LVL219:
 1911 00f4 1C70     		strb	r4, [r3]
 536:modbus_rtu.c  ****                crc16 = CRC16(&modbus_response_read_holding_registers[0], modbus_response_data_lengt
 1912              		.loc 1 536 0
 1913 00f6 A11E     		subs	r1, r4, #2
 1914 00f8 084D     		ldr	r5, .L102+8
 1915 00fa 89B2     		uxth	r1, r1
 1916 00fc 2846     		mov	r0, r5
 1917 00fe FFF7FEFF 		bl	CRC16
 1918              	.LVL220:
 1919 0102 044B     		ldr	r3, .L102
 1920 0104 1880     		strh	r0, [r3]	@ movhi
 537:modbus_rtu.c  ****                modbus_response_read_holding_registers[modbus_response_data_length - 2] = (uint8_t)(
 1921              		.loc 1 537 0
 1922 0106 A31E     		subs	r3, r4, #2
 1923 0108 020A     		lsrs	r2, r0, #8
 1924 010a EA54     		strb	r2, [r5, r3]
 538:modbus_rtu.c  ****                modbus_response_read_holding_registers[modbus_response_data_length - 1] = (uint8_t)(
 1925              		.loc 1 538 0
 1926 010c 013C     		subs	r4, r4, #1
 1927 010e 2855     		strb	r0, [r5, r4]
 1928              	.LVL221:
 1929              	.L93:
 1930 0110 F8BD     		pop	{r3, r4, r5, r6, r7, pc}
 1931              	.L103:
 1932 0112 00BF     		.align	2
 1933              	.L102:
 1934 0114 00000000 		.word	crc16
 1935 0118 00000000 		.word	modbus_response_data_length
 1936 011c 00000000 		.word	modbus_response_read_holding_registers
ARM GAS  C:\Users\Shaunak\AppData\Local\Temp\ccVo5zvX.s 			page 45


 1937 0120 00000000 		.word	modbus_response_read_coil
 1938 0124 00000000 		.word	modbus_holding_registers_value
 1939              	.LBE11:
 1940              	.LBE10:
 1941              		.cfi_endproc
 1942              	.LFE6:
 1943              		.size	query_response_read_holding_registers, .-query_response_read_holding_registers
 1944              		.section	.text.query_response_read_input_registers,"ax",%progbits
 1945              		.align	2
 1946              		.global	query_response_read_input_registers
 1947              		.thumb
 1948              		.thumb_func
 1949              		.type	query_response_read_input_registers, %function
 1950              	query_response_read_input_registers:
 1951              	.LFB7:
 539:modbus_rtu.c  ****             } 
 540:modbus_rtu.c  ****         }       
 541:modbus_rtu.c  ****     }
 542:modbus_rtu.c  **** }
 543:modbus_rtu.c  **** void query_response_read_input_registers(uint8_t *modbus_received_data, uint8_t number_of_bytes)
 544:modbus_rtu.c  **** {
 1952              		.loc 1 544 0
 1953              		.cfi_startproc
 1954              		@ args = 0, pretend = 0, frame = 0
 1955              		@ frame_needed = 0, uses_anonymous_args = 0
 1956              	.LVL222:
 1957 0000 F8B5     		push	{r3, r4, r5, r6, r7, lr}
 1958              		.cfi_def_cfa_offset 24
 1959              		.cfi_offset 3, -24
 1960              		.cfi_offset 4, -20
 1961              		.cfi_offset 5, -16
 1962              		.cfi_offset 6, -12
 1963              		.cfi_offset 7, -8
 1964              		.cfi_offset 14, -4
 1965 0002 0546     		mov	r5, r0
 1966 0004 0C46     		mov	r4, r1
 545:modbus_rtu.c  ****     crc16 = CRC16(&(*(modbus_received_data + 0)), number_of_bytes - 2);
 1967              		.loc 1 545 0
 1968 0006 0239     		subs	r1, r1, #2
 1969              	.LVL223:
 1970 0008 89B2     		uxth	r1, r1
 1971 000a FFF7FEFF 		bl	CRC16
 1972              	.LVL224:
 1973 000e 414B     		ldr	r3, .L113
 1974 0010 1880     		strh	r0, [r3]	@ movhi
 546:modbus_rtu.c  ****     if(((uint16_t)(*(modbus_received_data + number_of_bytes - 2)) == (crc16 >> 8)) && ((uint16_t)(*
 1975              		.loc 1 546 0
 1976 0012 A31E     		subs	r3, r4, #2
 1977 0014 EB5C     		ldrb	r3, [r5, r3]	@ zero_extendqisi2
 1978 0016 B3EB102F 		cmp	r3, r0, lsr #8
 1979 001a 79D1     		bne	.L104
 1980              		.loc 1 546 0 is_stmt 0 discriminator 1
 1981 001c 013C     		subs	r4, r4, #1
 1982 001e 2B5D     		ldrb	r3, [r5, r4]	@ zero_extendqisi2
 1983 0020 C0B2     		uxtb	r0, r0
 1984 0022 8342     		cmp	r3, r0
 1985 0024 74D1     		bne	.L104
ARM GAS  C:\Users\Shaunak\AppData\Local\Temp\ccVo5zvX.s 			page 46


 547:modbus_rtu.c  ****     {
 548:modbus_rtu.c  ****         if((*(modbus_received_data + 0)) == MODBUS_SLAVE_ADDRESS)
 1986              		.loc 1 548 0 is_stmt 1
 1987 0026 2A78     		ldrb	r2, [r5]	@ zero_extendqisi2
 1988 0028 012A     		cmp	r2, #1
 1989 002a 71D1     		bne	.L104
 1990              	.LBB12:
 549:modbus_rtu.c  ****         {
 550:modbus_rtu.c  ****             uint16_t input_registers_count;
 551:modbus_rtu.c  ****             input_registers_count = ((uint16_t)(*(modbus_received_data + 4)) << 8) | ((uint16_t)(*(
 1991              		.loc 1 551 0
 1992 002c 2979     		ldrb	r1, [r5, #4]	@ zero_extendqisi2
 1993 002e 6B79     		ldrb	r3, [r5, #5]	@ zero_extendqisi2
 1994 0030 43EA0121 		orr	r1, r3, r1, lsl #8
 1995 0034 09B2     		sxth	r1, r1
 1996 0036 8CB2     		uxth	r4, r1
 1997              	.LVL225:
 552:modbus_rtu.c  ****             uint16_t input_registers_start_address;
 553:modbus_rtu.c  ****             input_registers_start_address = (((uint16_t)(*(modbus_received_data + 2)) << 8) | ((uin
 1998              		.loc 1 553 0
 1999 0038 AB78     		ldrb	r3, [r5, #2]	@ zero_extendqisi2
 2000 003a E878     		ldrb	r0, [r5, #3]	@ zero_extendqisi2
 2001 003c 40EA0323 		orr	r3, r0, r3, lsl #8
 2002              	.LVL226:
 554:modbus_rtu.c  ****             if(input_registers_start_address >= NUMBER_OF_INPUT_REGISTERS)
 2003              		.loc 1 554 0
 2004 0040 3F2B     		cmp	r3, #63
 2005 0042 14D9     		bls	.L106
 555:modbus_rtu.c  ****             {
 556:modbus_rtu.c  ****                 modbus_response_data_length = 5;
 2006              		.loc 1 556 0
 2007 0044 0522     		movs	r2, #5
 2008 0046 344B     		ldr	r3, .L113+4
 2009              	.LVL227:
 2010 0048 1A70     		strb	r2, [r3]
 557:modbus_rtu.c  ****                 modbus_response_read_input_registers[0] = *(modbus_received_data + 0);
 2011              		.loc 1 557 0
 2012 004a 2B78     		ldrb	r3, [r5]	@ zero_extendqisi2
 2013 004c 334C     		ldr	r4, .L113+8
 2014              	.LVL228:
 2015 004e 2370     		strb	r3, [r4]
 2016              	.LVL229:
 558:modbus_rtu.c  ****                 modbus_response_read_input_registers[1] = *(modbus_received_data + 1) + 128;
 2017              		.loc 1 558 0
 2018 0050 6B78     		ldrb	r3, [r5, #1]	@ zero_extendqisi2
 2019 0052 803B     		subs	r3, r3, #128
 2020 0054 6370     		strb	r3, [r4, #1]
 559:modbus_rtu.c  ****                 modbus_response_read_input_registers[2] = 0x02;
 2021              		.loc 1 559 0
 2022 0056 0223     		movs	r3, #2
 2023 0058 A370     		strb	r3, [r4, #2]
 560:modbus_rtu.c  ****                 crc16 = CRC16(&modbus_response_read_coil[0], 3); 
 2024              		.loc 1 560 0
 2025 005a 0321     		movs	r1, #3
 2026              	.LVL230:
 2027 005c 3048     		ldr	r0, .L113+12
 2028 005e FFF7FEFF 		bl	CRC16
ARM GAS  C:\Users\Shaunak\AppData\Local\Temp\ccVo5zvX.s 			page 47


 2029              	.LVL231:
 2030 0062 2C4B     		ldr	r3, .L113
 2031 0064 1880     		strh	r0, [r3]	@ movhi
 561:modbus_rtu.c  ****                 modbus_response_read_input_registers[3] = (uint8_t)(crc16 >> 8);
 2032              		.loc 1 561 0
 2033 0066 030A     		lsrs	r3, r0, #8
 2034 0068 E370     		strb	r3, [r4, #3]
 562:modbus_rtu.c  ****                 modbus_response_read_input_registers[4] = (uint8_t)(crc16 & 0x00FF);
 2035              		.loc 1 562 0
 2036 006a 2071     		strb	r0, [r4, #4]
 2037 006c F8BD     		pop	{r3, r4, r5, r6, r7, pc}
 2038              	.LVL232:
 2039              	.L106:
 563:modbus_rtu.c  ****             }
 564:modbus_rtu.c  ****             else if((input_registers_start_address + input_registers_count) >= (NUMBER_OF_INPUT_REG
 2040              		.loc 1 564 0
 2041 006e 1F46     		mov	r7, r3
 2042 0070 2646     		mov	r6, r4
 2043 0072 2344     		add	r3, r3, r4
 2044              	.LVL233:
 2045 0074 402B     		cmp	r3, #64
 2046 0076 13DD     		ble	.L107
 565:modbus_rtu.c  ****             {
 566:modbus_rtu.c  ****                 modbus_response_data_length = 5;
 2047              		.loc 1 566 0
 2048 0078 0522     		movs	r2, #5
 2049 007a 274B     		ldr	r3, .L113+4
 2050 007c 1A70     		strb	r2, [r3]
 567:modbus_rtu.c  ****                 modbus_response_read_input_registers[0] = *(modbus_received_data + 0);
 2051              		.loc 1 567 0
 2052 007e 2B78     		ldrb	r3, [r5]	@ zero_extendqisi2
 2053 0080 264C     		ldr	r4, .L113+8
 2054              	.LVL234:
 2055 0082 2370     		strb	r3, [r4]
 568:modbus_rtu.c  ****                 modbus_response_read_input_registers[1] = *(modbus_received_data + 1) + 128;
 2056              		.loc 1 568 0
 2057 0084 6B78     		ldrb	r3, [r5, #1]	@ zero_extendqisi2
 2058 0086 803B     		subs	r3, r3, #128
 2059 0088 6370     		strb	r3, [r4, #1]
 569:modbus_rtu.c  ****                 modbus_response_read_input_registers[2] = 0x03;
 2060              		.loc 1 569 0
 2061 008a 0321     		movs	r1, #3
 2062 008c A170     		strb	r1, [r4, #2]
 570:modbus_rtu.c  ****                 crc16 = CRC16(&modbus_response_read_coil[0], 3); 
 2063              		.loc 1 570 0
 2064 008e 2448     		ldr	r0, .L113+12
 2065 0090 FFF7FEFF 		bl	CRC16
 2066              	.LVL235:
 2067 0094 1F4B     		ldr	r3, .L113
 2068 0096 1880     		strh	r0, [r3]	@ movhi
 571:modbus_rtu.c  ****                 modbus_response_read_input_registers[3] = (uint8_t)(crc16 >> 8);
 2069              		.loc 1 571 0
 2070 0098 030A     		lsrs	r3, r0, #8
 2071 009a E370     		strb	r3, [r4, #3]
 572:modbus_rtu.c  ****                 modbus_response_read_input_registers[4] = (uint8_t)(crc16 & 0x00FF);
 2072              		.loc 1 572 0
 2073 009c 2071     		strb	r0, [r4, #4]
ARM GAS  C:\Users\Shaunak\AppData\Local\Temp\ccVo5zvX.s 			page 48


 2074 009e F8BD     		pop	{r3, r4, r5, r6, r7, pc}
 2075              	.LVL236:
 2076              	.L107:
 2077              	.LBB13:
 573:modbus_rtu.c  ****             }
 574:modbus_rtu.c  ****             else
 575:modbus_rtu.c  ****             {
 576:modbus_rtu.c  ****                 //STATUS_LED_TOGGLE;
 577:modbus_rtu.c  ****                 modbus_response_read_input_registers[0] = *(modbus_received_data + 0);
 2078              		.loc 1 577 0
 2079 00a0 1E4B     		ldr	r3, .L113+8
 2080 00a2 1A70     		strb	r2, [r3]
 578:modbus_rtu.c  ****                 modbus_response_read_input_registers[1] = *(modbus_received_data + 1);
 2081              		.loc 1 578 0
 2082 00a4 6A78     		ldrb	r2, [r5, #1]	@ zero_extendqisi2
 2083 00a6 5A70     		strb	r2, [r3, #1]
 579:modbus_rtu.c  ****                 modbus_response_read_input_registers[2] = input_registers_count * 2; 
 2084              		.loc 1 579 0
 2085 00a8 4900     		lsls	r1, r1, #1
 2086 00aa C9B2     		uxtb	r1, r1
 2087 00ac 9970     		strb	r1, [r3, #2]
 2088              	.LVL237:
 580:modbus_rtu.c  ****                 uint8_t u = 0;
 581:modbus_rtu.c  ****                 for(u = 0; u < (input_registers_count * 2); u++)
 2089              		.loc 1 581 0
 2090 00ae 0023     		movs	r3, #0
 2091 00b0 19E0     		b	.L108
 2092              	.LVL238:
 2093              	.L111:
 582:modbus_rtu.c  ****                 {
 583:modbus_rtu.c  ****                     if(u % 2 == 0)
 2094              		.loc 1 583 0
 2095 00b2 13F00100 		ands	r0, r3, #1
 2096 00b6 0BD1     		bne	.L109
 584:modbus_rtu.c  ****                     {
 585:modbus_rtu.c  ****                         modbus_response_read_input_registers[u + 3] = (uint8_t)((modbus_input_regis
 2097              		.loc 1 585 0
 2098 00b8 D41C     		adds	r4, r2, #3
 2099 00ba 07EB5305 		add	r5, r7, r3, lsr #1
 2100 00be DFF864E0 		ldr	lr, .L113+16
 2101 00c2 3EF81550 		ldrh	r5, [lr, r5, lsl #1]
 2102 00c6 2D0A     		lsrs	r5, r5, #8
 2103 00c8 DFF850E0 		ldr	lr, .L113+8
 2104 00cc 0EF80450 		strb	r5, [lr, r4]
 2105              	.L109:
 586:modbus_rtu.c  ****                     }
 587:modbus_rtu.c  ****                     if(u % 2 != 0)
 2106              		.loc 1 587 0
 2107 00d0 38B1     		cbz	r0, .L110
 588:modbus_rtu.c  ****                     {
 589:modbus_rtu.c  ****                         modbus_response_read_input_registers[u + 3] = (uint8_t)((modbus_input_regis
 2108              		.loc 1 589 0
 2109 00d2 0332     		adds	r2, r2, #3
 2110 00d4 07EB5300 		add	r0, r7, r3, lsr #1
 2111 00d8 124C     		ldr	r4, .L113+16
 2112 00da 14F81040 		ldrb	r4, [r4, r0, lsl #1]	@ zero_extendqisi2
 2113 00de 0F48     		ldr	r0, .L113+8
ARM GAS  C:\Users\Shaunak\AppData\Local\Temp\ccVo5zvX.s 			page 49


 2114 00e0 8454     		strb	r4, [r0, r2]
 2115              	.L110:
 581:modbus_rtu.c  ****                 {
 2116              		.loc 1 581 0 discriminator 2
 2117 00e2 0133     		adds	r3, r3, #1
 2118              	.LVL239:
 2119 00e4 DBB2     		uxtb	r3, r3
 2120              	.LVL240:
 2121              	.L108:
 581:modbus_rtu.c  ****                 {
 2122              		.loc 1 581 0 is_stmt 0 discriminator 1
 2123 00e6 1A46     		mov	r2, r3
 2124 00e8 B3EB460F 		cmp	r3, r6, lsl #1
 2125 00ec E1DB     		blt	.L111
 590:modbus_rtu.c  ****                     }                
 591:modbus_rtu.c  ****                }
 592:modbus_rtu.c  ****                modbus_response_data_length = 5 + (input_registers_count * 2);
 2126              		.loc 1 592 0 is_stmt 1
 2127 00ee 0531     		adds	r1, r1, #5
 2128 00f0 CCB2     		uxtb	r4, r1
 2129 00f2 094B     		ldr	r3, .L113+4
 2130              	.LVL241:
 2131 00f4 1C70     		strb	r4, [r3]
 593:modbus_rtu.c  ****                crc16 = CRC16(&modbus_response_read_input_registers[0], modbus_response_data_length 
 2132              		.loc 1 593 0
 2133 00f6 A11E     		subs	r1, r4, #2
 2134 00f8 084D     		ldr	r5, .L113+8
 2135 00fa 89B2     		uxth	r1, r1
 2136 00fc 2846     		mov	r0, r5
 2137 00fe FFF7FEFF 		bl	CRC16
 2138              	.LVL242:
 2139 0102 044B     		ldr	r3, .L113
 2140 0104 1880     		strh	r0, [r3]	@ movhi
 594:modbus_rtu.c  ****                modbus_response_read_input_registers[modbus_response_data_length - 2] = (uint8_t)(cr
 2141              		.loc 1 594 0
 2142 0106 A31E     		subs	r3, r4, #2
 2143 0108 020A     		lsrs	r2, r0, #8
 2144 010a EA54     		strb	r2, [r5, r3]
 595:modbus_rtu.c  ****                modbus_response_read_input_registers[modbus_response_data_length - 1] = (uint8_t)(cr
 2145              		.loc 1 595 0
 2146 010c 013C     		subs	r4, r4, #1
 2147 010e 2855     		strb	r0, [r5, r4]
 2148              	.LVL243:
 2149              	.L104:
 2150 0110 F8BD     		pop	{r3, r4, r5, r6, r7, pc}
 2151              	.L114:
 2152 0112 00BF     		.align	2
 2153              	.L113:
 2154 0114 00000000 		.word	crc16
 2155 0118 00000000 		.word	modbus_response_data_length
 2156 011c 00000000 		.word	modbus_response_read_input_registers
 2157 0120 00000000 		.word	modbus_response_read_coil
 2158 0124 00000000 		.word	modbus_input_registers_value
 2159              	.LBE13:
 2160              	.LBE12:
 2161              		.cfi_endproc
 2162              	.LFE7:
ARM GAS  C:\Users\Shaunak\AppData\Local\Temp\ccVo5zvX.s 			page 50


 2163              		.size	query_response_read_input_registers, .-query_response_read_input_registers
 2164              		.section	.text.query_response_preset_single_register,"ax",%progbits
 2165              		.align	2
 2166              		.global	query_response_preset_single_register
 2167              		.thumb
 2168              		.thumb_func
 2169              		.type	query_response_preset_single_register, %function
 2170              	query_response_preset_single_register:
 2171              	.LFB8:
 596:modbus_rtu.c  ****             }
 597:modbus_rtu.c  ****         }
 598:modbus_rtu.c  ****     }
 599:modbus_rtu.c  **** }
 600:modbus_rtu.c  **** void query_response_preset_single_register(uint8_t *modbus_received_data, uint8_t number_of_bytes)
 601:modbus_rtu.c  **** {
 2172              		.loc 1 601 0
 2173              		.cfi_startproc
 2174              		@ args = 0, pretend = 0, frame = 0
 2175              		@ frame_needed = 0, uses_anonymous_args = 0
 2176              	.LVL244:
 2177 0000 38B5     		push	{r3, r4, r5, lr}
 2178              		.cfi_def_cfa_offset 16
 2179              		.cfi_offset 3, -16
 2180              		.cfi_offset 4, -12
 2181              		.cfi_offset 5, -8
 2182              		.cfi_offset 14, -4
 2183 0002 0546     		mov	r5, r0
 2184 0004 0C46     		mov	r4, r1
 602:modbus_rtu.c  ****     crc16 = CRC16(&(*(modbus_received_data + 0)), number_of_bytes - 2);
 2185              		.loc 1 602 0
 2186 0006 0239     		subs	r1, r1, #2
 2187              	.LVL245:
 2188 0008 89B2     		uxth	r1, r1
 2189 000a FFF7FEFF 		bl	CRC16
 2190              	.LVL246:
 2191 000e 254B     		ldr	r3, .L119
 2192 0010 1880     		strh	r0, [r3]	@ movhi
 603:modbus_rtu.c  ****     if(((uint16_t)(*(modbus_received_data + number_of_bytes - 2)) == (crc16 >> 8)) && ((uint16_t)(*
 2193              		.loc 1 603 0
 2194 0012 A31E     		subs	r3, r4, #2
 2195 0014 EB5C     		ldrb	r3, [r5, r3]	@ zero_extendqisi2
 2196 0016 B3EB102F 		cmp	r3, r0, lsr #8
 2197 001a 42D1     		bne	.L115
 2198              		.loc 1 603 0 is_stmt 0 discriminator 1
 2199 001c 013C     		subs	r4, r4, #1
 2200 001e 2B5D     		ldrb	r3, [r5, r4]	@ zero_extendqisi2
 2201 0020 C0B2     		uxtb	r0, r0
 2202 0022 8342     		cmp	r3, r0
 2203 0024 3DD1     		bne	.L115
 604:modbus_rtu.c  ****     {
 605:modbus_rtu.c  ****         if((*modbus_received_data + 0) == MODBUS_SLAVE_ADDRESS)
 2204              		.loc 1 605 0 is_stmt 1
 2205 0026 2B78     		ldrb	r3, [r5]	@ zero_extendqisi2
 2206 0028 012B     		cmp	r3, #1
 2207 002a 3AD1     		bne	.L115
 2208              	.LBB14:
 606:modbus_rtu.c  ****         {
ARM GAS  C:\Users\Shaunak\AppData\Local\Temp\ccVo5zvX.s 			page 51


 607:modbus_rtu.c  ****             uint16_t holding_register_address = ((uint16_t)(*(modbus_received_data + 2)) << 8) | (u
 2209              		.loc 1 607 0
 2210 002c AA78     		ldrb	r2, [r5, #2]	@ zero_extendqisi2
 2211 002e EB78     		ldrb	r3, [r5, #3]	@ zero_extendqisi2
 2212 0030 43EA0223 		orr	r3, r3, r2, lsl #8
 2213              	.LVL247:
 608:modbus_rtu.c  ****             if(holding_register_address >= NUMBER_OF_HOLDING_REGISTERS)
 2214              		.loc 1 608 0
 2215 0034 3F2B     		cmp	r3, #63
 2216 0036 14D9     		bls	.L117
 609:modbus_rtu.c  ****             {
 610:modbus_rtu.c  ****                 modbus_response_data_length = 5;
 2217              		.loc 1 610 0
 2218 0038 0522     		movs	r2, #5
 2219 003a 1B4B     		ldr	r3, .L119+4
 2220              	.LVL248:
 2221 003c 1A70     		strb	r2, [r3]
 611:modbus_rtu.c  ****                 modbus_response_preset_single_register[0] = *(modbus_received_data + 0);
 2222              		.loc 1 611 0
 2223 003e 2B78     		ldrb	r3, [r5]	@ zero_extendqisi2
 2224 0040 1A4C     		ldr	r4, .L119+8
 2225 0042 2370     		strb	r3, [r4]
 2226              	.LVL249:
 612:modbus_rtu.c  ****                 modbus_response_preset_single_register[1] = *(modbus_received_data + 1) + 128;
 2227              		.loc 1 612 0
 2228 0044 6B78     		ldrb	r3, [r5, #1]	@ zero_extendqisi2
 2229 0046 803B     		subs	r3, r3, #128
 2230 0048 6370     		strb	r3, [r4, #1]
 613:modbus_rtu.c  ****                 modbus_response_preset_single_register[2] = 0x02;
 2231              		.loc 1 613 0
 2232 004a 0223     		movs	r3, #2
 2233 004c A370     		strb	r3, [r4, #2]
 614:modbus_rtu.c  ****                 crc16 = CRC16(&modbus_response_read_coil[0], 3); 
 2234              		.loc 1 614 0
 2235 004e 0321     		movs	r1, #3
 2236 0050 1748     		ldr	r0, .L119+12
 2237 0052 FFF7FEFF 		bl	CRC16
 2238              	.LVL250:
 2239 0056 134B     		ldr	r3, .L119
 2240 0058 1880     		strh	r0, [r3]	@ movhi
 615:modbus_rtu.c  ****                 modbus_response_preset_single_register[3] = (uint8_t)(crc16 >> 8);
 2241              		.loc 1 615 0
 2242 005a 030A     		lsrs	r3, r0, #8
 2243 005c E370     		strb	r3, [r4, #3]
 616:modbus_rtu.c  ****                 modbus_response_preset_single_register[4] = (uint8_t)(crc16 & 0x00FF);
 2244              		.loc 1 616 0
 2245 005e 2071     		strb	r0, [r4, #4]
 2246 0060 38BD     		pop	{r3, r4, r5, pc}
 2247              	.LVL251:
 2248              	.L117:
 2249              	.LBB15:
 617:modbus_rtu.c  ****             } 
 618:modbus_rtu.c  ****             else
 619:modbus_rtu.c  ****             {
 620:modbus_rtu.c  ****                 //STATUS_LED_TOGGLE;
 621:modbus_rtu.c  ****                 uint16_t preset_holding_register_value = ((uint16_t)(*(modbus_received_data + 4)) <
 2250              		.loc 1 621 0
ARM GAS  C:\Users\Shaunak\AppData\Local\Temp\ccVo5zvX.s 			page 52


 2251 0062 2979     		ldrb	r1, [r5, #4]	@ zero_extendqisi2
 2252 0064 6A79     		ldrb	r2, [r5, #5]	@ zero_extendqisi2
 2253 0066 42EA0122 		orr	r2, r2, r1, lsl #8
 2254              	.LVL252:
 622:modbus_rtu.c  ****                 modbus_response_holding_registers_temp[holding_register_address] = preset_holding_r
 2255              		.loc 1 622 0
 2256 006a 1249     		ldr	r1, .L119+16
 2257 006c 21F81320 		strh	r2, [r1, r3, lsl #1]	@ movhi
 623:modbus_rtu.c  ****                 modbus_response_preset_single_register[0] = *(modbus_received_data + 0);
 2258              		.loc 1 623 0
 2259 0070 2B78     		ldrb	r3, [r5]	@ zero_extendqisi2
 2260              	.LVL253:
 2261 0072 0E4C     		ldr	r4, .L119+8
 2262 0074 2370     		strb	r3, [r4]
 624:modbus_rtu.c  ****                 modbus_response_preset_single_register[1] = *(modbus_received_data + 1);
 2263              		.loc 1 624 0
 2264 0076 6B78     		ldrb	r3, [r5, #1]	@ zero_extendqisi2
 2265 0078 6370     		strb	r3, [r4, #1]
 625:modbus_rtu.c  ****                 modbus_response_preset_single_register[2] = *(modbus_received_data + 2);
 2266              		.loc 1 625 0
 2267 007a AB78     		ldrb	r3, [r5, #2]	@ zero_extendqisi2
 2268 007c A370     		strb	r3, [r4, #2]
 626:modbus_rtu.c  ****                 modbus_response_preset_single_register[3] = *(modbus_received_data + 3);
 2269              		.loc 1 626 0
 2270 007e EB78     		ldrb	r3, [r5, #3]	@ zero_extendqisi2
 2271 0080 E370     		strb	r3, [r4, #3]
 627:modbus_rtu.c  ****                 modbus_response_preset_single_register[4] = *(modbus_received_data + 4);
 2272              		.loc 1 627 0
 2273 0082 2B79     		ldrb	r3, [r5, #4]	@ zero_extendqisi2
 2274 0084 2371     		strb	r3, [r4, #4]
 628:modbus_rtu.c  ****                 modbus_response_preset_single_register[5] = *(modbus_received_data + 5);
 2275              		.loc 1 628 0
 2276 0086 6B79     		ldrb	r3, [r5, #5]	@ zero_extendqisi2
 2277 0088 6371     		strb	r3, [r4, #5]
 629:modbus_rtu.c  ****                 modbus_response_data_length = 8;
 2278              		.loc 1 629 0
 2279 008a 0822     		movs	r2, #8
 2280              	.LVL254:
 2281 008c 064B     		ldr	r3, .L119+4
 2282 008e 1A70     		strb	r2, [r3]
 630:modbus_rtu.c  ****                 crc16 = CRC16(& modbus_response_preset_single_register[0], modbus_response_data_len
 2283              		.loc 1 630 0
 2284 0090 0621     		movs	r1, #6
 2285 0092 2046     		mov	r0, r4
 2286 0094 FFF7FEFF 		bl	CRC16
 2287              	.LVL255:
 2288 0098 024B     		ldr	r3, .L119
 2289 009a 1880     		strh	r0, [r3]	@ movhi
 631:modbus_rtu.c  ****                 modbus_response_preset_single_register[modbus_response_data_length - 2] = (uint8_t)
 2290              		.loc 1 631 0
 2291 009c 030A     		lsrs	r3, r0, #8
 2292 009e A371     		strb	r3, [r4, #6]
 632:modbus_rtu.c  ****                 modbus_response_preset_single_register[modbus_response_data_length - 1] = (uint8_t)
 2293              		.loc 1 632 0
 2294 00a0 E071     		strb	r0, [r4, #7]
 2295              	.L115:
 2296 00a2 38BD     		pop	{r3, r4, r5, pc}
ARM GAS  C:\Users\Shaunak\AppData\Local\Temp\ccVo5zvX.s 			page 53


 2297              	.LVL256:
 2298              	.L120:
 2299              		.align	2
 2300              	.L119:
 2301 00a4 00000000 		.word	crc16
 2302 00a8 00000000 		.word	modbus_response_data_length
 2303 00ac 00000000 		.word	modbus_response_preset_single_register
 2304 00b0 00000000 		.word	modbus_response_read_coil
 2305 00b4 00000000 		.word	modbus_response_holding_registers_temp
 2306              	.LBE15:
 2307              	.LBE14:
 2308              		.cfi_endproc
 2309              	.LFE8:
 2310              		.size	query_response_preset_single_register, .-query_response_preset_single_register
 2311              		.section	.text.query_response_preset_multiple_registers,"ax",%progbits
 2312              		.align	2
 2313              		.global	query_response_preset_multiple_registers
 2314              		.thumb
 2315              		.thumb_func
 2316              		.type	query_response_preset_multiple_registers, %function
 2317              	query_response_preset_multiple_registers:
 2318              	.LFB9:
 633:modbus_rtu.c  ****             }
 634:modbus_rtu.c  ****         }
 635:modbus_rtu.c  ****     }   
 636:modbus_rtu.c  **** }
 637:modbus_rtu.c  **** void query_response_preset_multiple_registers(uint8_t *modbus_received_data, uint8_t number_of_byte
 638:modbus_rtu.c  **** {
 2319              		.loc 1 638 0
 2320              		.cfi_startproc
 2321              		@ args = 0, pretend = 0, frame = 0
 2322              		@ frame_needed = 0, uses_anonymous_args = 0
 2323              	.LVL257:
 2324 0000 70B5     		push	{r4, r5, r6, lr}
 2325              		.cfi_def_cfa_offset 16
 2326              		.cfi_offset 4, -16
 2327              		.cfi_offset 5, -12
 2328              		.cfi_offset 6, -8
 2329              		.cfi_offset 14, -4
 2330 0002 0546     		mov	r5, r0
 2331 0004 0C46     		mov	r4, r1
 639:modbus_rtu.c  ****     crc16 = CRC16(&(*(modbus_received_data + 0)), number_of_bytes - 2);
 2332              		.loc 1 639 0
 2333 0006 0239     		subs	r1, r1, #2
 2334              	.LVL258:
 2335 0008 89B2     		uxth	r1, r1
 2336 000a FFF7FEFF 		bl	CRC16
 2337              	.LVL259:
 2338 000e 3B4B     		ldr	r3, .L129
 2339 0010 1880     		strh	r0, [r3]	@ movhi
 640:modbus_rtu.c  ****     if(((uint16_t)(*(modbus_received_data + number_of_bytes - 2)) == (crc16 >> 8)) && ((uint16_t)(*
 2340              		.loc 1 640 0
 2341 0012 A31E     		subs	r3, r4, #2
 2342 0014 EB5C     		ldrb	r3, [r5, r3]	@ zero_extendqisi2
 2343 0016 B3EB102F 		cmp	r3, r0, lsr #8
 2344 001a 6DD1     		bne	.L121
 2345              		.loc 1 640 0 is_stmt 0 discriminator 1
ARM GAS  C:\Users\Shaunak\AppData\Local\Temp\ccVo5zvX.s 			page 54


 2346 001c 013C     		subs	r4, r4, #1
 2347 001e 2B5D     		ldrb	r3, [r5, r4]	@ zero_extendqisi2
 2348 0020 C0B2     		uxtb	r0, r0
 2349 0022 8342     		cmp	r3, r0
 2350 0024 68D1     		bne	.L121
 641:modbus_rtu.c  ****     {
 642:modbus_rtu.c  ****         if((*modbus_received_data + 0) == MODBUS_SLAVE_ADDRESS)
 2351              		.loc 1 642 0 is_stmt 1
 2352 0026 2B78     		ldrb	r3, [r5]	@ zero_extendqisi2
 2353 0028 012B     		cmp	r3, #1
 2354 002a 65D1     		bne	.L121
 2355              	.LBB16:
 643:modbus_rtu.c  ****         {
 644:modbus_rtu.c  ****             uint16_t holding_register_start_address = ((uint16_t)(*(modbus_received_data + 2)) << 8
 2356              		.loc 1 644 0
 2357 002c A978     		ldrb	r1, [r5, #2]	@ zero_extendqisi2
 2358 002e EB78     		ldrb	r3, [r5, #3]	@ zero_extendqisi2
 2359 0030 43EA0121 		orr	r1, r3, r1, lsl #8
 2360              	.LVL260:
 645:modbus_rtu.c  ****             uint16_t holding_register_count = ((uint16_t)(*(modbus_received_data + 4)) << 8) | (uin
 2361              		.loc 1 645 0
 2362 0034 2B79     		ldrb	r3, [r5, #4]	@ zero_extendqisi2
 2363 0036 6A79     		ldrb	r2, [r5, #5]	@ zero_extendqisi2
 2364 0038 42EA0323 		orr	r3, r2, r3, lsl #8
 2365              	.LVL261:
 646:modbus_rtu.c  ****             if(holding_register_start_address >= NUMBER_OF_HOLDING_REGISTERS)
 2366              		.loc 1 646 0
 2367 003c 3F29     		cmp	r1, #63
 2368 003e 14D9     		bls	.L123
 647:modbus_rtu.c  ****             {
 648:modbus_rtu.c  ****                 modbus_response_data_length = 5;
 2369              		.loc 1 648 0
 2370 0040 0522     		movs	r2, #5
 2371 0042 2F4B     		ldr	r3, .L129+4
 2372              	.LVL262:
 2373 0044 1A70     		strb	r2, [r3]
 649:modbus_rtu.c  ****                 modbus_response_preset_multiple_registers[0] = (*modbus_received_data + 0);
 2374              		.loc 1 649 0
 2375 0046 2B78     		ldrb	r3, [r5]	@ zero_extendqisi2
 2376 0048 2E4C     		ldr	r4, .L129+8
 2377 004a 2370     		strb	r3, [r4]
 2378              	.LVL263:
 650:modbus_rtu.c  ****                 modbus_response_preset_multiple_registers[1] = *(modbus_received_data + 1) + 128;
 2379              		.loc 1 650 0
 2380 004c 6B78     		ldrb	r3, [r5, #1]	@ zero_extendqisi2
 2381 004e 803B     		subs	r3, r3, #128
 2382 0050 6370     		strb	r3, [r4, #1]
 651:modbus_rtu.c  ****                 modbus_response_preset_multiple_registers[2] = 0x02;
 2383              		.loc 1 651 0
 2384 0052 0223     		movs	r3, #2
 2385 0054 A370     		strb	r3, [r4, #2]
 652:modbus_rtu.c  ****                 crc16 = CRC16(&modbus_response_read_coil[0], 3); 
 2386              		.loc 1 652 0
 2387 0056 0321     		movs	r1, #3
 2388              	.LVL264:
 2389 0058 2B48     		ldr	r0, .L129+12
 2390 005a FFF7FEFF 		bl	CRC16
ARM GAS  C:\Users\Shaunak\AppData\Local\Temp\ccVo5zvX.s 			page 55


 2391              	.LVL265:
 2392 005e 274B     		ldr	r3, .L129
 2393 0060 1880     		strh	r0, [r3]	@ movhi
 653:modbus_rtu.c  ****                 modbus_response_preset_multiple_registers[3] = (uint8_t)(crc16 >> 8);
 2394              		.loc 1 653 0
 2395 0062 030A     		lsrs	r3, r0, #8
 2396 0064 E370     		strb	r3, [r4, #3]
 654:modbus_rtu.c  ****                 modbus_response_preset_multiple_registers[4] = (uint8_t)(crc16 & 0x00FF);
 2397              		.loc 1 654 0
 2398 0066 2071     		strb	r0, [r4, #4]
 2399 0068 70BD     		pop	{r4, r5, r6, pc}
 2400              	.LVL266:
 2401              	.L123:
 655:modbus_rtu.c  ****             }   
 656:modbus_rtu.c  ****             else if((holding_register_start_address + holding_register_count) >= (NUMBER_OF_HOLDING
 2402              		.loc 1 656 0
 2403 006a 0E46     		mov	r6, r1
 2404 006c 1846     		mov	r0, r3
 2405 006e 0B44     		add	r3, r3, r1
 2406              	.LVL267:
 2407 0070 402B     		cmp	r3, #64
 2408 0072 24DD     		ble	.L127
 657:modbus_rtu.c  ****             {
 658:modbus_rtu.c  ****                 modbus_response_data_length = 5;
 2409              		.loc 1 658 0
 2410 0074 0522     		movs	r2, #5
 2411 0076 224B     		ldr	r3, .L129+4
 2412 0078 1A70     		strb	r2, [r3]
 659:modbus_rtu.c  ****                 modbus_response_preset_multiple_registers[0] = *(modbus_received_data + 0);
 2413              		.loc 1 659 0
 2414 007a 2B78     		ldrb	r3, [r5]	@ zero_extendqisi2
 2415 007c 214C     		ldr	r4, .L129+8
 2416 007e 2370     		strb	r3, [r4]
 660:modbus_rtu.c  ****                 modbus_response_preset_multiple_registers[1] = *(modbus_received_data + 1) + 128;
 2417              		.loc 1 660 0
 2418 0080 6B78     		ldrb	r3, [r5, #1]	@ zero_extendqisi2
 2419 0082 803B     		subs	r3, r3, #128
 2420 0084 6370     		strb	r3, [r4, #1]
 661:modbus_rtu.c  ****                 modbus_response_preset_multiple_registers[2] = 0x03;
 2421              		.loc 1 661 0
 2422 0086 0321     		movs	r1, #3
 2423              	.LVL268:
 2424 0088 A170     		strb	r1, [r4, #2]
 662:modbus_rtu.c  ****                 crc16 = CRC16(&modbus_response_read_coil[0], 3); 
 2425              		.loc 1 662 0
 2426 008a 1F48     		ldr	r0, .L129+12
 2427              	.LVL269:
 2428 008c FFF7FEFF 		bl	CRC16
 2429              	.LVL270:
 2430 0090 1A4B     		ldr	r3, .L129
 2431 0092 1880     		strh	r0, [r3]	@ movhi
 663:modbus_rtu.c  ****                 modbus_response_preset_multiple_registers[3] = (uint8_t)(crc16 >> 8);
 2432              		.loc 1 663 0
 2433 0094 030A     		lsrs	r3, r0, #8
 2434 0096 E370     		strb	r3, [r4, #3]
 664:modbus_rtu.c  ****                 modbus_response_preset_multiple_registers[4] = (uint8_t)(crc16 & 0x00FF);
 2435              		.loc 1 664 0
ARM GAS  C:\Users\Shaunak\AppData\Local\Temp\ccVo5zvX.s 			page 56


 2436 0098 2071     		strb	r0, [r4, #4]
 2437 009a 70BD     		pop	{r4, r5, r6, pc}
 2438              	.LVL271:
 2439              	.L126:
 2440              	.LBB17:
 665:modbus_rtu.c  ****             }
 666:modbus_rtu.c  ****             else
 667:modbus_rtu.c  ****             {
 668:modbus_rtu.c  ****                 //STATUS_LED_TOGGLE;
 669:modbus_rtu.c  ****                 uint8_t i;
 670:modbus_rtu.c  ****                 for(i = 0; i < (holding_register_count * 2); i++)
 671:modbus_rtu.c  ****                 {
 672:modbus_rtu.c  ****                     if(i % 2 != 0)
 2441              		.loc 1 672 0
 2442 009c 13F0010F 		tst	r3, #1
 2443 00a0 0AD0     		beq	.L125
 673:modbus_rtu.c  ****                     {
 674:modbus_rtu.c  ****                         modbus_response_holding_registers_temp[holding_register_start_address + (ui
 2444              		.loc 1 674 0
 2445 00a2 06EB5302 		add	r2, r6, r3, lsr #1
 2446 00a6 991D     		adds	r1, r3, #6
 2447 00a8 6C5C     		ldrb	r4, [r5, r1]	@ zero_extendqisi2
 2448 00aa D91D     		adds	r1, r3, #7
 2449 00ac 695C     		ldrb	r1, [r5, r1]	@ zero_extendqisi2
 2450 00ae 41EA0421 		orr	r1, r1, r4, lsl #8
 2451 00b2 164C     		ldr	r4, .L129+16
 2452 00b4 24F81210 		strh	r1, [r4, r2, lsl #1]	@ movhi
 2453              	.L125:
 670:modbus_rtu.c  ****                 {
 2454              		.loc 1 670 0 discriminator 2
 2455 00b8 0133     		adds	r3, r3, #1
 2456              	.LVL272:
 2457 00ba DBB2     		uxtb	r3, r3
 2458              	.LVL273:
 2459 00bc 00E0     		b	.L124
 2460              	.LVL274:
 2461              	.L127:
 2462              	.LBE17:
 2463 00be 0023     		movs	r3, #0
 2464              	.LVL275:
 2465              	.L124:
 2466              	.LBB18:
 670:modbus_rtu.c  ****                 {
 2467              		.loc 1 670 0 is_stmt 0 discriminator 1
 2468 00c0 B3EB400F 		cmp	r3, r0, lsl #1
 2469 00c4 EADB     		blt	.L126
 675:modbus_rtu.c  ****                     }
 676:modbus_rtu.c  ****                 }
 677:modbus_rtu.c  ****                 modbus_response_preset_multiple_registers[0] = *(modbus_received_data + 0);
 2470              		.loc 1 677 0 is_stmt 1
 2471 00c6 2B78     		ldrb	r3, [r5]	@ zero_extendqisi2
 2472              	.LVL276:
 2473 00c8 0E4C     		ldr	r4, .L129+8
 2474 00ca 2370     		strb	r3, [r4]
 678:modbus_rtu.c  ****                 modbus_response_preset_multiple_registers[1] = *(modbus_received_data + 1);
 2475              		.loc 1 678 0
 2476 00cc 6B78     		ldrb	r3, [r5, #1]	@ zero_extendqisi2
ARM GAS  C:\Users\Shaunak\AppData\Local\Temp\ccVo5zvX.s 			page 57


 2477 00ce 6370     		strb	r3, [r4, #1]
 679:modbus_rtu.c  ****                 modbus_response_preset_multiple_registers[2] = *(modbus_received_data + 2);
 2478              		.loc 1 679 0
 2479 00d0 AB78     		ldrb	r3, [r5, #2]	@ zero_extendqisi2
 2480 00d2 A370     		strb	r3, [r4, #2]
 680:modbus_rtu.c  ****                 modbus_response_preset_multiple_registers[3] = *(modbus_received_data + 3);
 2481              		.loc 1 680 0
 2482 00d4 EB78     		ldrb	r3, [r5, #3]	@ zero_extendqisi2
 2483 00d6 E370     		strb	r3, [r4, #3]
 681:modbus_rtu.c  ****                 modbus_response_preset_multiple_registers[4] = *(modbus_received_data + 4);
 2484              		.loc 1 681 0
 2485 00d8 2B79     		ldrb	r3, [r5, #4]	@ zero_extendqisi2
 2486 00da 2371     		strb	r3, [r4, #4]
 682:modbus_rtu.c  ****                 modbus_response_preset_multiple_registers[5] = *(modbus_received_data + 5);
 2487              		.loc 1 682 0
 2488 00dc 6B79     		ldrb	r3, [r5, #5]	@ zero_extendqisi2
 2489 00de 6371     		strb	r3, [r4, #5]
 683:modbus_rtu.c  ****                 modbus_response_data_length = 8;
 2490              		.loc 1 683 0
 2491 00e0 0822     		movs	r2, #8
 2492 00e2 074B     		ldr	r3, .L129+4
 2493 00e4 1A70     		strb	r2, [r3]
 684:modbus_rtu.c  ****                 crc16 = CRC16(& modbus_response_preset_multiple_registers[0], modbus_response_data_
 2494              		.loc 1 684 0
 2495 00e6 0621     		movs	r1, #6
 2496 00e8 2046     		mov	r0, r4
 2497              	.LVL277:
 2498 00ea FFF7FEFF 		bl	CRC16
 2499              	.LVL278:
 2500 00ee 034B     		ldr	r3, .L129
 2501 00f0 1880     		strh	r0, [r3]	@ movhi
 685:modbus_rtu.c  ****                 modbus_response_preset_multiple_registers[modbus_response_data_length - 2] = (uint8
 2502              		.loc 1 685 0
 2503 00f2 030A     		lsrs	r3, r0, #8
 2504 00f4 A371     		strb	r3, [r4, #6]
 686:modbus_rtu.c  ****                 modbus_response_preset_multiple_registers[modbus_response_data_length - 1] = (uint8
 2505              		.loc 1 686 0
 2506 00f6 E071     		strb	r0, [r4, #7]
 2507              	.LVL279:
 2508              	.L121:
 2509 00f8 70BD     		pop	{r4, r5, r6, pc}
 2510              	.LVL280:
 2511              	.L130:
 2512 00fa 00BF     		.align	2
 2513              	.L129:
 2514 00fc 00000000 		.word	crc16
 2515 0100 00000000 		.word	modbus_response_data_length
 2516 0104 00000000 		.word	modbus_response_preset_multiple_registers
 2517 0108 00000000 		.word	modbus_response_read_coil
 2518 010c 00000000 		.word	modbus_response_holding_registers_temp
 2519              	.LBE18:
 2520              	.LBE16:
 2521              		.cfi_endproc
 2522              	.LFE9:
 2523              		.size	query_response_preset_multiple_registers, .-query_response_preset_multiple_registers
 2524              		.comm	crc16,2,2
 2525              		.comm	modbus_response_input_registers_temp,128,4
ARM GAS  C:\Users\Shaunak\AppData\Local\Temp\ccVo5zvX.s 			page 58


 2526              		.comm	modbus_response_holding_registers_temp,128,4
 2527              		.comm	modbus_response_discrete_input_temp,9,4
 2528              		.comm	modbus_response_coil_temp,9,4
 2529              		.comm	modbus_response_force_multiple_coils,8,4
 2530              		.comm	modbus_response_force_single_coil,8,4
 2531              		.comm	modbus_response_read_input_registers,133,4
 2532              		.comm	modbus_response_preset_multiple_registers,8,4
 2533              		.comm	modbus_response_preset_single_register,8,4
 2534              		.comm	modbus_response_read_holding_registers,133,4
 2535              		.comm	modbus_response_read_discrete_input,13,4
 2536              		.comm	modbus_response_read_coil,13,4
 2537              		.comm	modbus_coil_value,9,4
 2538              		.comm	modbus_discrete_input_value,9,4
 2539              		.comm	modbus_input_registers_value_L,64,4
 2540              		.comm	modbus_input_registers_value_H,64,4
 2541              		.comm	modbus_input_registers_value,128,4
 2542              		.comm	modbus_holding_registers_value_L,64,4
 2543              		.comm	modbus_holding_registers_value_H,64,4
 2544              		.comm	modbus_holding_registers_value,128,4
 2545              		.comm	modbus_response_data_length,1,1
 2546              		.section	.rodata
 2547              		.align	2
 2548              		.set	.LANCHOR0,. + 0
 2549              		.type	auchCRCHi, %object
 2550              		.size	auchCRCHi, 256
 2551              	auchCRCHi:
 2552 0000 00       		.byte	0
 2553 0001 C1       		.byte	-63
 2554 0002 81       		.byte	-127
 2555 0003 40       		.byte	64
 2556 0004 01       		.byte	1
 2557 0005 C0       		.byte	-64
 2558 0006 80       		.byte	-128
 2559 0007 41       		.byte	65
 2560 0008 01       		.byte	1
 2561 0009 C0       		.byte	-64
 2562 000a 80       		.byte	-128
 2563 000b 41       		.byte	65
 2564 000c 00       		.byte	0
 2565 000d C1       		.byte	-63
 2566 000e 81       		.byte	-127
 2567 000f 40       		.byte	64
 2568 0010 01       		.byte	1
 2569 0011 C0       		.byte	-64
 2570 0012 80       		.byte	-128
 2571 0013 41       		.byte	65
 2572 0014 00       		.byte	0
 2573 0015 C1       		.byte	-63
 2574 0016 81       		.byte	-127
 2575 0017 40       		.byte	64
 2576 0018 00       		.byte	0
 2577 0019 C1       		.byte	-63
 2578 001a 81       		.byte	-127
 2579 001b 40       		.byte	64
 2580 001c 01       		.byte	1
 2581 001d C0       		.byte	-64
 2582 001e 80       		.byte	-128
ARM GAS  C:\Users\Shaunak\AppData\Local\Temp\ccVo5zvX.s 			page 59


 2583 001f 41       		.byte	65
 2584 0020 01       		.byte	1
 2585 0021 C0       		.byte	-64
 2586 0022 80       		.byte	-128
 2587 0023 41       		.byte	65
 2588 0024 00       		.byte	0
 2589 0025 C1       		.byte	-63
 2590 0026 81       		.byte	-127
 2591 0027 40       		.byte	64
 2592 0028 00       		.byte	0
 2593 0029 C1       		.byte	-63
 2594 002a 81       		.byte	-127
 2595 002b 40       		.byte	64
 2596 002c 01       		.byte	1
 2597 002d C0       		.byte	-64
 2598 002e 80       		.byte	-128
 2599 002f 41       		.byte	65
 2600 0030 00       		.byte	0
 2601 0031 C1       		.byte	-63
 2602 0032 81       		.byte	-127
 2603 0033 40       		.byte	64
 2604 0034 01       		.byte	1
 2605 0035 C0       		.byte	-64
 2606 0036 80       		.byte	-128
 2607 0037 41       		.byte	65
 2608 0038 01       		.byte	1
 2609 0039 C0       		.byte	-64
 2610 003a 80       		.byte	-128
 2611 003b 41       		.byte	65
 2612 003c 00       		.byte	0
 2613 003d C1       		.byte	-63
 2614 003e 81       		.byte	-127
 2615 003f 40       		.byte	64
 2616 0040 01       		.byte	1
 2617 0041 C0       		.byte	-64
 2618 0042 80       		.byte	-128
 2619 0043 41       		.byte	65
 2620 0044 00       		.byte	0
 2621 0045 C1       		.byte	-63
 2622 0046 81       		.byte	-127
 2623 0047 40       		.byte	64
 2624 0048 00       		.byte	0
 2625 0049 C1       		.byte	-63
 2626 004a 81       		.byte	-127
 2627 004b 40       		.byte	64
 2628 004c 01       		.byte	1
 2629 004d C0       		.byte	-64
 2630 004e 80       		.byte	-128
 2631 004f 41       		.byte	65
 2632 0050 00       		.byte	0
 2633 0051 C1       		.byte	-63
 2634 0052 81       		.byte	-127
 2635 0053 40       		.byte	64
 2636 0054 01       		.byte	1
 2637 0055 C0       		.byte	-64
 2638 0056 80       		.byte	-128
 2639 0057 41       		.byte	65
ARM GAS  C:\Users\Shaunak\AppData\Local\Temp\ccVo5zvX.s 			page 60


 2640 0058 01       		.byte	1
 2641 0059 C0       		.byte	-64
 2642 005a 80       		.byte	-128
 2643 005b 41       		.byte	65
 2644 005c 00       		.byte	0
 2645 005d C1       		.byte	-63
 2646 005e 81       		.byte	-127
 2647 005f 40       		.byte	64
 2648 0060 00       		.byte	0
 2649 0061 C1       		.byte	-63
 2650 0062 81       		.byte	-127
 2651 0063 40       		.byte	64
 2652 0064 01       		.byte	1
 2653 0065 C0       		.byte	-64
 2654 0066 80       		.byte	-128
 2655 0067 41       		.byte	65
 2656 0068 01       		.byte	1
 2657 0069 C0       		.byte	-64
 2658 006a 80       		.byte	-128
 2659 006b 41       		.byte	65
 2660 006c 00       		.byte	0
 2661 006d C1       		.byte	-63
 2662 006e 81       		.byte	-127
 2663 006f 40       		.byte	64
 2664 0070 01       		.byte	1
 2665 0071 C0       		.byte	-64
 2666 0072 80       		.byte	-128
 2667 0073 41       		.byte	65
 2668 0074 00       		.byte	0
 2669 0075 C1       		.byte	-63
 2670 0076 81       		.byte	-127
 2671 0077 40       		.byte	64
 2672 0078 00       		.byte	0
 2673 0079 C1       		.byte	-63
 2674 007a 81       		.byte	-127
 2675 007b 40       		.byte	64
 2676 007c 01       		.byte	1
 2677 007d C0       		.byte	-64
 2678 007e 80       		.byte	-128
 2679 007f 41       		.byte	65
 2680 0080 01       		.byte	1
 2681 0081 C0       		.byte	-64
 2682 0082 80       		.byte	-128
 2683 0083 41       		.byte	65
 2684 0084 00       		.byte	0
 2685 0085 C1       		.byte	-63
 2686 0086 81       		.byte	-127
 2687 0087 40       		.byte	64
 2688 0088 00       		.byte	0
 2689 0089 C1       		.byte	-63
 2690 008a 81       		.byte	-127
 2691 008b 40       		.byte	64
 2692 008c 01       		.byte	1
 2693 008d C0       		.byte	-64
 2694 008e 80       		.byte	-128
 2695 008f 41       		.byte	65
 2696 0090 00       		.byte	0
ARM GAS  C:\Users\Shaunak\AppData\Local\Temp\ccVo5zvX.s 			page 61


 2697 0091 C1       		.byte	-63
 2698 0092 81       		.byte	-127
 2699 0093 40       		.byte	64
 2700 0094 01       		.byte	1
 2701 0095 C0       		.byte	-64
 2702 0096 80       		.byte	-128
 2703 0097 41       		.byte	65
 2704 0098 01       		.byte	1
 2705 0099 C0       		.byte	-64
 2706 009a 80       		.byte	-128
 2707 009b 41       		.byte	65
 2708 009c 00       		.byte	0
 2709 009d C1       		.byte	-63
 2710 009e 81       		.byte	-127
 2711 009f 40       		.byte	64
 2712 00a0 00       		.byte	0
 2713 00a1 C1       		.byte	-63
 2714 00a2 81       		.byte	-127
 2715 00a3 40       		.byte	64
 2716 00a4 01       		.byte	1
 2717 00a5 C0       		.byte	-64
 2718 00a6 80       		.byte	-128
 2719 00a7 41       		.byte	65
 2720 00a8 01       		.byte	1
 2721 00a9 C0       		.byte	-64
 2722 00aa 80       		.byte	-128
 2723 00ab 41       		.byte	65
 2724 00ac 00       		.byte	0
 2725 00ad C1       		.byte	-63
 2726 00ae 81       		.byte	-127
 2727 00af 40       		.byte	64
 2728 00b0 01       		.byte	1
 2729 00b1 C0       		.byte	-64
 2730 00b2 80       		.byte	-128
 2731 00b3 41       		.byte	65
 2732 00b4 00       		.byte	0
 2733 00b5 C1       		.byte	-63
 2734 00b6 81       		.byte	-127
 2735 00b7 40       		.byte	64
 2736 00b8 00       		.byte	0
 2737 00b9 C1       		.byte	-63
 2738 00ba 81       		.byte	-127
 2739 00bb 40       		.byte	64
 2740 00bc 01       		.byte	1
 2741 00bd C0       		.byte	-64
 2742 00be 80       		.byte	-128
 2743 00bf 41       		.byte	65
 2744 00c0 00       		.byte	0
 2745 00c1 C1       		.byte	-63
 2746 00c2 81       		.byte	-127
 2747 00c3 40       		.byte	64
 2748 00c4 01       		.byte	1
 2749 00c5 C0       		.byte	-64
 2750 00c6 80       		.byte	-128
 2751 00c7 41       		.byte	65
 2752 00c8 01       		.byte	1
 2753 00c9 C0       		.byte	-64
ARM GAS  C:\Users\Shaunak\AppData\Local\Temp\ccVo5zvX.s 			page 62


 2754 00ca 80       		.byte	-128
 2755 00cb 41       		.byte	65
 2756 00cc 00       		.byte	0
 2757 00cd C1       		.byte	-63
 2758 00ce 81       		.byte	-127
 2759 00cf 40       		.byte	64
 2760 00d0 01       		.byte	1
 2761 00d1 C0       		.byte	-64
 2762 00d2 80       		.byte	-128
 2763 00d3 41       		.byte	65
 2764 00d4 00       		.byte	0
 2765 00d5 C1       		.byte	-63
 2766 00d6 81       		.byte	-127
 2767 00d7 40       		.byte	64
 2768 00d8 00       		.byte	0
 2769 00d9 C1       		.byte	-63
 2770 00da 81       		.byte	-127
 2771 00db 40       		.byte	64
 2772 00dc 01       		.byte	1
 2773 00dd C0       		.byte	-64
 2774 00de 80       		.byte	-128
 2775 00df 41       		.byte	65
 2776 00e0 01       		.byte	1
 2777 00e1 C0       		.byte	-64
 2778 00e2 80       		.byte	-128
 2779 00e3 41       		.byte	65
 2780 00e4 00       		.byte	0
 2781 00e5 C1       		.byte	-63
 2782 00e6 81       		.byte	-127
 2783 00e7 40       		.byte	64
 2784 00e8 00       		.byte	0
 2785 00e9 C1       		.byte	-63
 2786 00ea 81       		.byte	-127
 2787 00eb 40       		.byte	64
 2788 00ec 01       		.byte	1
 2789 00ed C0       		.byte	-64
 2790 00ee 80       		.byte	-128
 2791 00ef 41       		.byte	65
 2792 00f0 00       		.byte	0
 2793 00f1 C1       		.byte	-63
 2794 00f2 81       		.byte	-127
 2795 00f3 40       		.byte	64
 2796 00f4 01       		.byte	1
 2797 00f5 C0       		.byte	-64
 2798 00f6 80       		.byte	-128
 2799 00f7 41       		.byte	65
 2800 00f8 01       		.byte	1
 2801 00f9 C0       		.byte	-64
 2802 00fa 80       		.byte	-128
 2803 00fb 41       		.byte	65
 2804 00fc 00       		.byte	0
 2805 00fd C1       		.byte	-63
 2806 00fe 81       		.byte	-127
 2807 00ff 40       		.byte	64
 2808              		.type	auchCRCLo, %object
 2809              		.size	auchCRCLo, 256
 2810              	auchCRCLo:
ARM GAS  C:\Users\Shaunak\AppData\Local\Temp\ccVo5zvX.s 			page 63


 2811 0100 00       		.byte	0
 2812 0101 C0       		.byte	-64
 2813 0102 C1       		.byte	-63
 2814 0103 01       		.byte	1
 2815 0104 C3       		.byte	-61
 2816 0105 03       		.byte	3
 2817 0106 02       		.byte	2
 2818 0107 C2       		.byte	-62
 2819 0108 C6       		.byte	-58
 2820 0109 06       		.byte	6
 2821 010a 07       		.byte	7
 2822 010b C7       		.byte	-57
 2823 010c 05       		.byte	5
 2824 010d C5       		.byte	-59
 2825 010e C4       		.byte	-60
 2826 010f 04       		.byte	4
 2827 0110 CC       		.byte	-52
 2828 0111 0C       		.byte	12
 2829 0112 0D       		.byte	13
 2830 0113 CD       		.byte	-51
 2831 0114 0F       		.byte	15
 2832 0115 CF       		.byte	-49
 2833 0116 CE       		.byte	-50
 2834 0117 0E       		.byte	14
 2835 0118 0A       		.byte	10
 2836 0119 CA       		.byte	-54
 2837 011a CB       		.byte	-53
 2838 011b 0B       		.byte	11
 2839 011c C9       		.byte	-55
 2840 011d 09       		.byte	9
 2841 011e 08       		.byte	8
 2842 011f C8       		.byte	-56
 2843 0120 D8       		.byte	-40
 2844 0121 18       		.byte	24
 2845 0122 19       		.byte	25
 2846 0123 D9       		.byte	-39
 2847 0124 1B       		.byte	27
 2848 0125 DB       		.byte	-37
 2849 0126 DA       		.byte	-38
 2850 0127 1A       		.byte	26
 2851 0128 1E       		.byte	30
 2852 0129 DE       		.byte	-34
 2853 012a DF       		.byte	-33
 2854 012b 1F       		.byte	31
 2855 012c DD       		.byte	-35
 2856 012d 1D       		.byte	29
 2857 012e 1C       		.byte	28
 2858 012f DC       		.byte	-36
 2859 0130 14       		.byte	20
 2860 0131 D4       		.byte	-44
 2861 0132 D5       		.byte	-43
 2862 0133 15       		.byte	21
 2863 0134 D7       		.byte	-41
 2864 0135 17       		.byte	23
 2865 0136 16       		.byte	22
 2866 0137 D6       		.byte	-42
 2867 0138 D2       		.byte	-46
ARM GAS  C:\Users\Shaunak\AppData\Local\Temp\ccVo5zvX.s 			page 64


 2868 0139 12       		.byte	18
 2869 013a 13       		.byte	19
 2870 013b D3       		.byte	-45
 2871 013c 11       		.byte	17
 2872 013d D1       		.byte	-47
 2873 013e D0       		.byte	-48
 2874 013f 10       		.byte	16
 2875 0140 F0       		.byte	-16
 2876 0141 30       		.byte	48
 2877 0142 31       		.byte	49
 2878 0143 F1       		.byte	-15
 2879 0144 33       		.byte	51
 2880 0145 F3       		.byte	-13
 2881 0146 F2       		.byte	-14
 2882 0147 32       		.byte	50
 2883 0148 36       		.byte	54
 2884 0149 F6       		.byte	-10
 2885 014a F7       		.byte	-9
 2886 014b 37       		.byte	55
 2887 014c F5       		.byte	-11
 2888 014d 35       		.byte	53
 2889 014e 34       		.byte	52
 2890 014f F4       		.byte	-12
 2891 0150 3C       		.byte	60
 2892 0151 FC       		.byte	-4
 2893 0152 FD       		.byte	-3
 2894 0153 3D       		.byte	61
 2895 0154 FF       		.byte	-1
 2896 0155 3F       		.byte	63
 2897 0156 3E       		.byte	62
 2898 0157 FE       		.byte	-2
 2899 0158 FA       		.byte	-6
 2900 0159 3A       		.byte	58
 2901 015a 3B       		.byte	59
 2902 015b FB       		.byte	-5
 2903 015c 39       		.byte	57
 2904 015d F9       		.byte	-7
 2905 015e F8       		.byte	-8
 2906 015f 38       		.byte	56
 2907 0160 28       		.byte	40
 2908 0161 E8       		.byte	-24
 2909 0162 E9       		.byte	-23
 2910 0163 29       		.byte	41
 2911 0164 EB       		.byte	-21
 2912 0165 2B       		.byte	43
 2913 0166 2A       		.byte	42
 2914 0167 EA       		.byte	-22
 2915 0168 EE       		.byte	-18
 2916 0169 2E       		.byte	46
 2917 016a 2F       		.byte	47
 2918 016b EF       		.byte	-17
 2919 016c 2D       		.byte	45
 2920 016d ED       		.byte	-19
 2921 016e EC       		.byte	-20
 2922 016f 2C       		.byte	44
 2923 0170 E4       		.byte	-28
 2924 0171 24       		.byte	36
ARM GAS  C:\Users\Shaunak\AppData\Local\Temp\ccVo5zvX.s 			page 65


 2925 0172 25       		.byte	37
 2926 0173 E5       		.byte	-27
 2927 0174 27       		.byte	39
 2928 0175 E7       		.byte	-25
 2929 0176 E6       		.byte	-26
 2930 0177 26       		.byte	38
 2931 0178 22       		.byte	34
 2932 0179 E2       		.byte	-30
 2933 017a E3       		.byte	-29
 2934 017b 23       		.byte	35
 2935 017c E1       		.byte	-31
 2936 017d 21       		.byte	33
 2937 017e 20       		.byte	32
 2938 017f E0       		.byte	-32
 2939 0180 A0       		.byte	-96
 2940 0181 60       		.byte	96
 2941 0182 61       		.byte	97
 2942 0183 A1       		.byte	-95
 2943 0184 63       		.byte	99
 2944 0185 A3       		.byte	-93
 2945 0186 A2       		.byte	-94
 2946 0187 62       		.byte	98
 2947 0188 66       		.byte	102
 2948 0189 A6       		.byte	-90
 2949 018a A7       		.byte	-89
 2950 018b 67       		.byte	103
 2951 018c A5       		.byte	-91
 2952 018d 65       		.byte	101
 2953 018e 64       		.byte	100
 2954 018f A4       		.byte	-92
 2955 0190 6C       		.byte	108
 2956 0191 AC       		.byte	-84
 2957 0192 AD       		.byte	-83
 2958 0193 6D       		.byte	109
 2959 0194 AF       		.byte	-81
 2960 0195 6F       		.byte	111
 2961 0196 6E       		.byte	110
 2962 0197 AE       		.byte	-82
 2963 0198 AA       		.byte	-86
 2964 0199 6A       		.byte	106
 2965 019a 6B       		.byte	107
 2966 019b AB       		.byte	-85
 2967 019c 69       		.byte	105
 2968 019d A9       		.byte	-87
 2969 019e A8       		.byte	-88
 2970 019f 68       		.byte	104
 2971 01a0 78       		.byte	120
 2972 01a1 B8       		.byte	-72
 2973 01a2 B9       		.byte	-71
 2974 01a3 79       		.byte	121
 2975 01a4 BB       		.byte	-69
 2976 01a5 7B       		.byte	123
 2977 01a6 7A       		.byte	122
 2978 01a7 BA       		.byte	-70
 2979 01a8 BE       		.byte	-66
 2980 01a9 7E       		.byte	126
 2981 01aa 7F       		.byte	127
ARM GAS  C:\Users\Shaunak\AppData\Local\Temp\ccVo5zvX.s 			page 66


 2982 01ab BF       		.byte	-65
 2983 01ac 7D       		.byte	125
 2984 01ad BD       		.byte	-67
 2985 01ae BC       		.byte	-68
 2986 01af 7C       		.byte	124
 2987 01b0 B4       		.byte	-76
 2988 01b1 74       		.byte	116
 2989 01b2 75       		.byte	117
 2990 01b3 B5       		.byte	-75
 2991 01b4 77       		.byte	119
 2992 01b5 B7       		.byte	-73
 2993 01b6 B6       		.byte	-74
 2994 01b7 76       		.byte	118
 2995 01b8 72       		.byte	114
 2996 01b9 B2       		.byte	-78
 2997 01ba B3       		.byte	-77
 2998 01bb 73       		.byte	115
 2999 01bc B1       		.byte	-79
 3000 01bd 71       		.byte	113
 3001 01be 70       		.byte	112
 3002 01bf B0       		.byte	-80
 3003 01c0 50       		.byte	80
 3004 01c1 90       		.byte	-112
 3005 01c2 91       		.byte	-111
 3006 01c3 51       		.byte	81
 3007 01c4 93       		.byte	-109
 3008 01c5 53       		.byte	83
 3009 01c6 52       		.byte	82
 3010 01c7 92       		.byte	-110
 3011 01c8 96       		.byte	-106
 3012 01c9 56       		.byte	86
 3013 01ca 57       		.byte	87
 3014 01cb 97       		.byte	-105
 3015 01cc 55       		.byte	85
 3016 01cd 95       		.byte	-107
 3017 01ce 94       		.byte	-108
 3018 01cf 54       		.byte	84
 3019 01d0 9C       		.byte	-100
 3020 01d1 5C       		.byte	92
 3021 01d2 5D       		.byte	93
 3022 01d3 9D       		.byte	-99
 3023 01d4 5F       		.byte	95
 3024 01d5 9F       		.byte	-97
 3025 01d6 9E       		.byte	-98
 3026 01d7 5E       		.byte	94
 3027 01d8 5A       		.byte	90
 3028 01d9 9A       		.byte	-102
 3029 01da 9B       		.byte	-101
 3030 01db 5B       		.byte	91
 3031 01dc 99       		.byte	-103
 3032 01dd 59       		.byte	89
 3033 01de 58       		.byte	88
 3034 01df 98       		.byte	-104
 3035 01e0 88       		.byte	-120
 3036 01e1 48       		.byte	72
 3037 01e2 49       		.byte	73
 3038 01e3 89       		.byte	-119
ARM GAS  C:\Users\Shaunak\AppData\Local\Temp\ccVo5zvX.s 			page 67


 3039 01e4 4B       		.byte	75
 3040 01e5 8B       		.byte	-117
 3041 01e6 8A       		.byte	-118
 3042 01e7 4A       		.byte	74
 3043 01e8 4E       		.byte	78
 3044 01e9 8E       		.byte	-114
 3045 01ea 8F       		.byte	-113
 3046 01eb 4F       		.byte	79
 3047 01ec 8D       		.byte	-115
 3048 01ed 4D       		.byte	77
 3049 01ee 4C       		.byte	76
 3050 01ef 8C       		.byte	-116
 3051 01f0 44       		.byte	68
 3052 01f1 84       		.byte	-124
 3053 01f2 85       		.byte	-123
 3054 01f3 45       		.byte	69
 3055 01f4 87       		.byte	-121
 3056 01f5 47       		.byte	71
 3057 01f6 46       		.byte	70
 3058 01f7 86       		.byte	-122
 3059 01f8 82       		.byte	-126
 3060 01f9 42       		.byte	66
 3061 01fa 43       		.byte	67
 3062 01fb 83       		.byte	-125
 3063 01fc 41       		.byte	65
 3064 01fd 81       		.byte	-127
 3065 01fe 80       		.byte	-128
 3066 01ff 40       		.byte	64
 3067              	.LC0:
 3068 0200 00       		.byte	0
 3069 0201 80       		.byte	-128
 3070 0202 C0       		.byte	-64
 3071 0203 E0       		.byte	-32
 3072 0204 F0       		.byte	-16
 3073 0205 F8       		.byte	-8
 3074 0206 FC       		.byte	-4
 3075 0207 FE       		.byte	-2
 3076              	.LC1:
 3077 0208 7F       		.byte	127
 3078 0209 BF       		.byte	-65
 3079 020a DF       		.byte	-33
 3080 020b EF       		.byte	-17
 3081 020c F7       		.byte	-9
 3082 020d FB       		.byte	-5
 3083 020e FD       		.byte	-3
 3084 020f FE       		.byte	-2
 3085              	.LC2:
 3086 0210 80       		.byte	-128
 3087 0211 40       		.byte	64
 3088 0212 20       		.byte	32
 3089 0213 10       		.byte	16
 3090 0214 08       		.byte	8
 3091 0215 04       		.byte	4
 3092 0216 02       		.byte	2
 3093 0217 01       		.byte	1
 3094              	.LC3:
 3095 0218 80       		.byte	-128
ARM GAS  C:\Users\Shaunak\AppData\Local\Temp\ccVo5zvX.s 			page 68


 3096 0219 C0       		.byte	-64
 3097 021a E0       		.byte	-32
 3098 021b F0       		.byte	-16
 3099 021c F8       		.byte	-8
 3100 021d FC       		.byte	-4
 3101 021e FE       		.byte	-2
 3102 021f FF       		.byte	-1
 3103              	.LC4:
 3104 0220 7F       		.byte	127
 3105 0221 3F       		.byte	63
 3106 0222 1F       		.byte	31
 3107 0223 0F       		.byte	15
 3108 0224 07       		.byte	7
 3109 0225 03       		.byte	3
 3110 0226 01       		.byte	1
 3111 0227 00       		.byte	0
 3112              		.text
 3113              	.Letext0:
 3114              		.file 2 "c:\\program files (x86)\\cypress\\psoc creator\\4.4\\psoc creator\\import\\gnu\\arm\\5.4.
 3115              		.file 3 "c:\\program files (x86)\\cypress\\psoc creator\\4.4\\psoc creator\\import\\gnu\\arm\\5.4.
 3116              		.section	.debug_info,"",%progbits
 3117              	.Ldebug_info0:
 3118 0000 C90B0000 		.4byte	0xbc9
 3119 0004 0400     		.2byte	0x4
 3120 0006 00000000 		.4byte	.Ldebug_abbrev0
 3121 000a 04       		.byte	0x4
 3122 000b 01       		.uleb128 0x1
 3123 000c 68070000 		.4byte	.LASF85
 3124 0010 0C       		.byte	0xc
 3125 0011 1C050000 		.4byte	.LASF86
 3126 0015 08070000 		.4byte	.LASF87
 3127 0019 18000000 		.4byte	.Ldebug_ranges0+0x18
 3128 001d 00000000 		.4byte	0
 3129 0021 00000000 		.4byte	.Ldebug_line0
 3130 0025 02       		.uleb128 0x2
 3131 0026 01       		.byte	0x1
 3132 0027 06       		.byte	0x6
 3133 0028 54040000 		.4byte	.LASF0
 3134 002c 03       		.uleb128 0x3
 3135 002d 3C030000 		.4byte	.LASF3
 3136 0031 02       		.byte	0x2
 3137 0032 1D       		.byte	0x1d
 3138 0033 37000000 		.4byte	0x37
 3139 0037 02       		.uleb128 0x2
 3140 0038 01       		.byte	0x1
 3141 0039 08       		.byte	0x8
 3142 003a 33040000 		.4byte	.LASF1
 3143 003e 02       		.uleb128 0x2
 3144 003f 02       		.byte	0x2
 3145 0040 05       		.byte	0x5
 3146 0041 BC000000 		.4byte	.LASF2
 3147 0045 03       		.uleb128 0x3
 3148 0046 7D010000 		.4byte	.LASF4
 3149 004a 02       		.byte	0x2
 3150 004b 2B       		.byte	0x2b
 3151 004c 50000000 		.4byte	0x50
 3152 0050 02       		.uleb128 0x2
ARM GAS  C:\Users\Shaunak\AppData\Local\Temp\ccVo5zvX.s 			page 69


 3153 0051 02       		.byte	0x2
 3154 0052 07       		.byte	0x7
 3155 0053 29050000 		.4byte	.LASF5
 3156 0057 02       		.uleb128 0x2
 3157 0058 04       		.byte	0x4
 3158 0059 05       		.byte	0x5
 3159 005a 0C030000 		.4byte	.LASF6
 3160 005e 02       		.uleb128 0x2
 3161 005f 04       		.byte	0x4
 3162 0060 07       		.byte	0x7
 3163 0061 E5050000 		.4byte	.LASF7
 3164 0065 02       		.uleb128 0x2
 3165 0066 08       		.byte	0x8
 3166 0067 05       		.byte	0x5
 3167 0068 B6020000 		.4byte	.LASF8
 3168 006c 02       		.uleb128 0x2
 3169 006d 08       		.byte	0x8
 3170 006e 07       		.byte	0x7
 3171 006f 60040000 		.4byte	.LASF9
 3172 0073 04       		.uleb128 0x4
 3173 0074 04       		.byte	0x4
 3174 0075 05       		.byte	0x5
 3175 0076 696E7400 		.ascii	"int\000"
 3176 007a 02       		.uleb128 0x2
 3177 007b 04       		.byte	0x4
 3178 007c 07       		.byte	0x7
 3179 007d 91040000 		.4byte	.LASF10
 3180 0081 03       		.uleb128 0x3
 3181 0082 07020000 		.4byte	.LASF11
 3182 0086 03       		.byte	0x3
 3183 0087 18       		.byte	0x18
 3184 0088 2C000000 		.4byte	0x2c
 3185 008c 03       		.uleb128 0x3
 3186 008d B0040000 		.4byte	.LASF12
 3187 0091 03       		.byte	0x3
 3188 0092 24       		.byte	0x24
 3189 0093 45000000 		.4byte	0x45
 3190 0097 05       		.uleb128 0x5
 3191 0098 4C060000 		.4byte	.LASF18
 3192 009c 01       		.byte	0x1
 3193 009d 5C       		.byte	0x5c
 3194 009e 50000000 		.4byte	0x50
 3195 00a2 00000000 		.4byte	.LFB0
 3196 00a6 30000000 		.4byte	.LFE0-.LFB0
 3197 00aa 01       		.uleb128 0x1
 3198 00ab 9C       		.byte	0x9c
 3199 00ac FC000000 		.4byte	0xfc
 3200 00b0 06       		.uleb128 0x6
 3201 00b1 E5020000 		.4byte	.LASF13
 3202 00b5 01       		.byte	0x1
 3203 00b6 5C       		.byte	0x5c
 3204 00b7 FC000000 		.4byte	0xfc
 3205 00bb 00000000 		.4byte	.LLST0
 3206 00bf 06       		.uleb128 0x6
 3207 00c0 41040000 		.4byte	.LASF14
 3208 00c4 01       		.byte	0x1
 3209 00c5 5C       		.byte	0x5c
ARM GAS  C:\Users\Shaunak\AppData\Local\Temp\ccVo5zvX.s 			page 70


 3210 00c6 50000000 		.4byte	0x50
 3211 00ca 2B000000 		.4byte	.LLST1
 3212 00ce 07       		.uleb128 0x7
 3213 00cf 4B040000 		.4byte	.LASF15
 3214 00d3 01       		.byte	0x1
 3215 00d4 5E       		.byte	0x5e
 3216 00d5 37000000 		.4byte	0x37
 3217 00d9 5F000000 		.4byte	.LLST2
 3218 00dd 07       		.uleb128 0x7
 3219 00de 1C080000 		.4byte	.LASF16
 3220 00e2 01       		.byte	0x1
 3221 00e3 5F       		.byte	0x5f
 3222 00e4 37000000 		.4byte	0x37
 3223 00e8 8A000000 		.4byte	.LLST3
 3224 00ec 07       		.uleb128 0x7
 3225 00ed 94080000 		.4byte	.LASF17
 3226 00f1 01       		.byte	0x1
 3227 00f2 60       		.byte	0x60
 3228 00f3 7A000000 		.4byte	0x7a
 3229 00f7 AA000000 		.4byte	.LLST4
 3230 00fb 00       		.byte	0
 3231 00fc 08       		.uleb128 0x8
 3232 00fd 04       		.byte	0x4
 3233 00fe 37000000 		.4byte	0x37
 3234 0102 05       		.uleb128 0x5
 3235 0103 88010000 		.4byte	.LASF19
 3236 0107 01       		.byte	0x1
 3237 0108 69       		.byte	0x69
 3238 0109 81000000 		.4byte	0x81
 3239 010d 00000000 		.4byte	.LFB1
 3240 0111 4E000000 		.4byte	.LFE1-.LFB1
 3241 0115 01       		.uleb128 0x1
 3242 0116 9C       		.byte	0x9c
 3243 0117 36010000 		.4byte	0x136
 3244 011b 06       		.uleb128 0x6
 3245 011c 38070000 		.4byte	.LASF20
 3246 0120 01       		.byte	0x1
 3247 0121 69       		.byte	0x69
 3248 0122 81000000 		.4byte	0x81
 3249 0126 D0000000 		.4byte	.LLST5
 3250 012a 09       		.uleb128 0x9
 3251 012b 63080000 		.4byte	.LASF88
 3252 012f 01       		.byte	0x1
 3253 0130 6B       		.byte	0x6b
 3254 0131 36010000 		.4byte	0x136
 3255 0135 00       		.byte	0
 3256 0136 0A       		.uleb128 0xa
 3257 0137 81000000 		.4byte	0x81
 3258 013b 46010000 		.4byte	0x146
 3259 013f 0B       		.uleb128 0xb
 3260 0140 46010000 		.4byte	0x146
 3261 0144 07       		.byte	0x7
 3262 0145 00       		.byte	0
 3263 0146 02       		.uleb128 0x2
 3264 0147 04       		.byte	0x4
 3265 0148 07       		.byte	0x7
 3266 0149 EA000000 		.4byte	.LASF21
ARM GAS  C:\Users\Shaunak\AppData\Local\Temp\ccVo5zvX.s 			page 71


 3267 014d 0C       		.uleb128 0xc
 3268 014e 52060000 		.4byte	.LASF30
 3269 0152 01       		.byte	0x1
 3270 0153 6F       		.byte	0x6f
 3271 0154 00000000 		.4byte	.LFB2
 3272 0158 D4010000 		.4byte	.LFE2-.LFB2
 3273 015c 01       		.uleb128 0x1
 3274 015d 9C       		.byte	0x9c
 3275 015e 5D020000 		.4byte	0x25d
 3276 0162 06       		.uleb128 0x6
 3277 0163 15030000 		.4byte	.LASF22
 3278 0167 01       		.byte	0x1
 3279 0168 6F       		.byte	0x6f
 3280 0169 5D020000 		.4byte	0x25d
 3281 016d FC000000 		.4byte	.LLST6
 3282 0171 06       		.uleb128 0x6
 3283 0172 F7010000 		.4byte	.LASF23
 3284 0176 01       		.byte	0x1
 3285 0177 6F       		.byte	0x6f
 3286 0178 81000000 		.4byte	0x81
 3287 017c 28010000 		.4byte	.LLST7
 3288 0180 0D       		.uleb128 0xd
 3289 0181 00000000 		.4byte	.LASF24
 3290 0185 01       		.byte	0x1
 3291 0186 71       		.byte	0x71
 3292 0187 36010000 		.4byte	0x136
 3293 018b 02       		.uleb128 0x2
 3294 018c 91       		.byte	0x91
 3295 018d 60       		.sleb128 -32
 3296 018e 0E       		.uleb128 0xe
 3297 018f 40000000 		.4byte	.LBB2
 3298 0193 7A010000 		.4byte	.LBE2-.LBB2
 3299 0197 46020000 		.4byte	0x246
 3300 019b 07       		.uleb128 0x7
 3301 019c 71020000 		.4byte	.LASF25
 3302 01a0 01       		.byte	0x1
 3303 01a1 77       		.byte	0x77
 3304 01a2 8C000000 		.4byte	0x8c
 3305 01a6 49010000 		.4byte	.LLST8
 3306 01aa 07       		.uleb128 0x7
 3307 01ab 39060000 		.4byte	.LASF26
 3308 01af 01       		.byte	0x1
 3309 01b0 79       		.byte	0x79
 3310 01b1 8C000000 		.4byte	0x8c
 3311 01b5 74010000 		.4byte	.LLST9
 3312 01b9 0E       		.uleb128 0xe
 3313 01ba BA000000 		.4byte	.LBB3
 3314 01be 00010000 		.4byte	.LBE3-.LBB3
 3315 01c2 17020000 		.4byte	0x217
 3316 01c6 07       		.uleb128 0x7
 3317 01c7 C1060000 		.4byte	.LASF27
 3318 01cb 01       		.byte	0x1
 3319 01cc 92       		.byte	0x92
 3320 01cd 81000000 		.4byte	0x81
 3321 01d1 CF010000 		.4byte	.LLST10
 3322 01d5 07       		.uleb128 0x7
 3323 01d6 E0040000 		.4byte	.LASF28
ARM GAS  C:\Users\Shaunak\AppData\Local\Temp\ccVo5zvX.s 			page 72


 3324 01da 01       		.byte	0x1
 3325 01db 93       		.byte	0x93
 3326 01dc 81000000 		.4byte	0x81
 3327 01e0 E2010000 		.4byte	.LLST11
 3328 01e4 07       		.uleb128 0x7
 3329 01e5 0E010000 		.4byte	.LASF29
 3330 01e9 01       		.byte	0x1
 3331 01ea 94       		.byte	0x94
 3332 01eb 81000000 		.4byte	0x81
 3333 01ef 00020000 		.4byte	.LLST12
 3334 01f3 0F       		.uleb128 0xf
 3335 01f4 7500     		.ascii	"u\000"
 3336 01f6 01       		.byte	0x1
 3337 01f7 97       		.byte	0x97
 3338 01f8 81000000 		.4byte	0x81
 3339 01fc 34020000 		.4byte	.LLST13
 3340 0200 10       		.uleb128 0x10
 3341 0201 AC010000 		.4byte	.LVL49
 3342 0205 97000000 		.4byte	0x97
 3343 0209 11       		.uleb128 0x11
 3344 020a 01       		.uleb128 0x1
 3345 020b 50       		.byte	0x50
 3346 020c 02       		.uleb128 0x2
 3347 020d 75       		.byte	0x75
 3348 020e 00       		.sleb128 0
 3349 020f 11       		.uleb128 0x11
 3350 0210 01       		.uleb128 0x1
 3351 0211 51       		.byte	0x51
 3352 0212 02       		.uleb128 0x2
 3353 0213 74       		.byte	0x74
 3354 0214 7E       		.sleb128 -2
 3355 0215 00       		.byte	0
 3356 0216 00       		.byte	0
 3357 0217 12       		.uleb128 0x12
 3358 0218 80000000 		.4byte	.LVL22
 3359 021c 97000000 		.4byte	0x97
 3360 0220 30020000 		.4byte	0x230
 3361 0224 11       		.uleb128 0x11
 3362 0225 01       		.uleb128 0x1
 3363 0226 50       		.byte	0x50
 3364 0227 02       		.uleb128 0x2
 3365 0228 74       		.byte	0x74
 3366 0229 00       		.sleb128 0
 3367 022a 11       		.uleb128 0x11
 3368 022b 01       		.uleb128 0x1
 3369 022c 51       		.byte	0x51
 3370 022d 01       		.uleb128 0x1
 3371 022e 33       		.byte	0x33
 3372 022f 00       		.byte	0
 3373 0230 10       		.uleb128 0x10
 3374 0231 AE000000 		.4byte	.LVL25
 3375 0235 97000000 		.4byte	0x97
 3376 0239 11       		.uleb128 0x11
 3377 023a 01       		.uleb128 0x1
 3378 023b 50       		.byte	0x50
 3379 023c 02       		.uleb128 0x2
 3380 023d 74       		.byte	0x74
ARM GAS  C:\Users\Shaunak\AppData\Local\Temp\ccVo5zvX.s 			page 73


 3381 023e 00       		.sleb128 0
 3382 023f 11       		.uleb128 0x11
 3383 0240 01       		.uleb128 0x1
 3384 0241 51       		.byte	0x51
 3385 0242 01       		.uleb128 0x1
 3386 0243 33       		.byte	0x33
 3387 0244 00       		.byte	0
 3388 0245 00       		.byte	0
 3389 0246 10       		.uleb128 0x10
 3390 0247 1C000000 		.4byte	.LVL18
 3391 024b 97000000 		.4byte	0x97
 3392 024f 11       		.uleb128 0x11
 3393 0250 01       		.uleb128 0x1
 3394 0251 50       		.byte	0x50
 3395 0252 02       		.uleb128 0x2
 3396 0253 75       		.byte	0x75
 3397 0254 00       		.sleb128 0
 3398 0255 11       		.uleb128 0x11
 3399 0256 01       		.uleb128 0x1
 3400 0257 51       		.byte	0x51
 3401 0258 02       		.uleb128 0x2
 3402 0259 74       		.byte	0x74
 3403 025a 7E       		.sleb128 -2
 3404 025b 00       		.byte	0
 3405 025c 00       		.byte	0
 3406 025d 08       		.uleb128 0x8
 3407 025e 04       		.byte	0x4
 3408 025f 81000000 		.4byte	0x81
 3409 0263 0C       		.uleb128 0xc
 3410 0264 90050000 		.4byte	.LASF31
 3411 0268 01       		.byte	0x1
 3412 0269 B2       		.byte	0xb2
 3413 026a 00000000 		.4byte	.LFB3
 3414 026e AC010000 		.4byte	.LFE3-.LFB3
 3415 0272 01       		.uleb128 0x1
 3416 0273 9C       		.byte	0x9c
 3417 0274 79030000 		.4byte	0x379
 3418 0278 06       		.uleb128 0x6
 3419 0279 15030000 		.4byte	.LASF22
 3420 027d 01       		.byte	0x1
 3421 027e B2       		.byte	0xb2
 3422 027f 5D020000 		.4byte	0x25d
 3423 0283 74020000 		.4byte	.LLST14
 3424 0287 06       		.uleb128 0x6
 3425 0288 F7010000 		.4byte	.LASF23
 3426 028c 01       		.byte	0x1
 3427 028d B2       		.byte	0xb2
 3428 028e 81000000 		.4byte	0x81
 3429 0292 A0020000 		.4byte	.LLST15
 3430 0296 0D       		.uleb128 0xd
 3431 0297 A3030000 		.4byte	.LASF32
 3432 029b 01       		.byte	0x1
 3433 029c B4       		.byte	0xb4
 3434 029d 36010000 		.4byte	0x136
 3435 02a1 02       		.uleb128 0x2
 3436 02a2 91       		.byte	0x91
 3437 02a3 60       		.sleb128 -32
ARM GAS  C:\Users\Shaunak\AppData\Local\Temp\ccVo5zvX.s 			page 74


 3438 02a4 0E       		.uleb128 0xe
 3439 02a5 40000000 		.4byte	.LBB4
 3440 02a9 4A010000 		.4byte	.LBE4-.LBB4
 3441 02ad 62030000 		.4byte	0x362
 3442 02b1 07       		.uleb128 0x7
 3443 02b2 F3000000 		.4byte	.LASF33
 3444 02b6 01       		.byte	0x1
 3445 02b7 BA       		.byte	0xba
 3446 02b8 8C000000 		.4byte	0x8c
 3447 02bc C1020000 		.4byte	.LLST16
 3448 02c0 07       		.uleb128 0x7
 3449 02c1 1C060000 		.4byte	.LASF34
 3450 02c5 01       		.byte	0x1
 3451 02c6 BC       		.byte	0xbc
 3452 02c7 8C000000 		.4byte	0x8c
 3453 02cb F5020000 		.4byte	.LLST17
 3454 02cf 0E       		.uleb128 0xe
 3455 02d0 BC000000 		.4byte	.LBB5
 3456 02d4 CE000000 		.4byte	.LBE5-.LBB5
 3457 02d8 2D030000 		.4byte	0x32d
 3458 02dc 07       		.uleb128 0x7
 3459 02dd 55020000 		.4byte	.LASF35
 3460 02e1 01       		.byte	0x1
 3461 02e2 D5       		.byte	0xd5
 3462 02e3 81000000 		.4byte	0x81
 3463 02e7 3A030000 		.4byte	.LLST18
 3464 02eb 07       		.uleb128 0x7
 3465 02ec E0040000 		.4byte	.LASF28
 3466 02f0 01       		.byte	0x1
 3467 02f1 D6       		.byte	0xd6
 3468 02f2 81000000 		.4byte	0x81
 3469 02f6 63030000 		.4byte	.LLST19
 3470 02fa 07       		.uleb128 0x7
 3471 02fb 0E010000 		.4byte	.LASF29
 3472 02ff 01       		.byte	0x1
 3473 0300 D7       		.byte	0xd7
 3474 0301 81000000 		.4byte	0x81
 3475 0305 81030000 		.4byte	.LLST20
 3476 0309 0F       		.uleb128 0xf
 3477 030a 7500     		.ascii	"u\000"
 3478 030c 01       		.byte	0x1
 3479 030d DA       		.byte	0xda
 3480 030e 81000000 		.4byte	0x81
 3481 0312 9F030000 		.4byte	.LLST21
 3482 0316 10       		.uleb128 0x10
 3483 0317 7C010000 		.4byte	.LVL78
 3484 031b 97000000 		.4byte	0x97
 3485 031f 11       		.uleb128 0x11
 3486 0320 01       		.uleb128 0x1
 3487 0321 50       		.byte	0x50
 3488 0322 02       		.uleb128 0x2
 3489 0323 75       		.byte	0x75
 3490 0324 00       		.sleb128 0
 3491 0325 11       		.uleb128 0x11
 3492 0326 01       		.uleb128 0x1
 3493 0327 51       		.byte	0x51
 3494 0328 02       		.uleb128 0x2
ARM GAS  C:\Users\Shaunak\AppData\Local\Temp\ccVo5zvX.s 			page 75


 3495 0329 74       		.byte	0x74
 3496 032a 7E       		.sleb128 -2
 3497 032b 00       		.byte	0
 3498 032c 00       		.byte	0
 3499 032d 12       		.uleb128 0x12
 3500 032e 7E000000 		.4byte	.LVL56
 3501 0332 97000000 		.4byte	0x97
 3502 0336 49030000 		.4byte	0x349
 3503 033a 11       		.uleb128 0x11
 3504 033b 01       		.uleb128 0x1
 3505 033c 50       		.byte	0x50
 3506 033d 05       		.uleb128 0x5
 3507 033e 03       		.byte	0x3
 3508 033f 00000000 		.4byte	modbus_response_read_coil
 3509 0343 11       		.uleb128 0x11
 3510 0344 01       		.uleb128 0x1
 3511 0345 51       		.byte	0x51
 3512 0346 01       		.uleb128 0x1
 3513 0347 33       		.byte	0x33
 3514 0348 00       		.byte	0
 3515 0349 10       		.uleb128 0x10
 3516 034a B0000000 		.4byte	.LVL58
 3517 034e 97000000 		.4byte	0x97
 3518 0352 11       		.uleb128 0x11
 3519 0353 01       		.uleb128 0x1
 3520 0354 50       		.byte	0x50
 3521 0355 05       		.uleb128 0x5
 3522 0356 03       		.byte	0x3
 3523 0357 00000000 		.4byte	modbus_response_read_coil
 3524 035b 11       		.uleb128 0x11
 3525 035c 01       		.uleb128 0x1
 3526 035d 51       		.byte	0x51
 3527 035e 01       		.uleb128 0x1
 3528 035f 33       		.byte	0x33
 3529 0360 00       		.byte	0
 3530 0361 00       		.byte	0
 3531 0362 10       		.uleb128 0x10
 3532 0363 1C000000 		.4byte	.LVL53
 3533 0367 97000000 		.4byte	0x97
 3534 036b 11       		.uleb128 0x11
 3535 036c 01       		.uleb128 0x1
 3536 036d 50       		.byte	0x50
 3537 036e 02       		.uleb128 0x2
 3538 036f 75       		.byte	0x75
 3539 0370 00       		.sleb128 0
 3540 0371 11       		.uleb128 0x11
 3541 0372 01       		.uleb128 0x1
 3542 0373 51       		.byte	0x51
 3543 0374 02       		.uleb128 0x2
 3544 0375 74       		.byte	0x74
 3545 0376 7E       		.sleb128 -2
 3546 0377 00       		.byte	0
 3547 0378 00       		.byte	0
 3548 0379 0C       		.uleb128 0xc
 3549 037a C4020000 		.4byte	.LASF36
 3550 037e 01       		.byte	0x1
 3551 037f F2       		.byte	0xf2
ARM GAS  C:\Users\Shaunak\AppData\Local\Temp\ccVo5zvX.s 			page 76


 3552 0380 00000000 		.4byte	.LFB4
 3553 0384 44010000 		.4byte	.LFE4-.LFB4
 3554 0388 01       		.uleb128 0x1
 3555 0389 9C       		.byte	0x9c
 3556 038a 84040000 		.4byte	0x484
 3557 038e 06       		.uleb128 0x6
 3558 038f 15030000 		.4byte	.LASF22
 3559 0393 01       		.byte	0x1
 3560 0394 F2       		.byte	0xf2
 3561 0395 5D020000 		.4byte	0x25d
 3562 0399 D4030000 		.4byte	.LLST22
 3563 039d 06       		.uleb128 0x6
 3564 039e F7010000 		.4byte	.LASF23
 3565 03a2 01       		.byte	0x1
 3566 03a3 F2       		.byte	0xf2
 3567 03a4 81000000 		.4byte	0x81
 3568 03a8 00040000 		.4byte	.LLST23
 3569 03ac 0E       		.uleb128 0xe
 3570 03ad 30000000 		.4byte	.LBB6
 3571 03b1 F6000000 		.4byte	.LBE6-.LBB6
 3572 03b5 6D040000 		.4byte	0x46d
 3573 03b9 07       		.uleb128 0x7
 3574 03ba 70010000 		.4byte	.LASF37
 3575 03be 01       		.byte	0x1
 3576 03bf F9       		.byte	0xf9
 3577 03c0 8C000000 		.4byte	0x8c
 3578 03c4 21040000 		.4byte	.LLST24
 3579 03c8 07       		.uleb128 0x7
 3580 03c9 2A030000 		.4byte	.LASF38
 3581 03cd 01       		.byte	0x1
 3582 03ce FA       		.byte	0xfa
 3583 03cf 8C000000 		.4byte	0x8c
 3584 03d3 82040000 		.4byte	.LLST25
 3585 03d7 0E       		.uleb128 0xe
 3586 03d8 A2000000 		.4byte	.LBB7
 3587 03dc 84000000 		.4byte	.LBE7-.LBB7
 3588 03e0 38040000 		.4byte	0x438
 3589 03e4 13       		.uleb128 0x13
 3590 03e5 AD060000 		.4byte	.LASF39
 3591 03e9 01       		.byte	0x1
 3592 03ea 1201     		.2byte	0x112
 3593 03ec 81000000 		.4byte	0x81
 3594 03f0 1C050000 		.4byte	.LLST26
 3595 03f4 13       		.uleb128 0x13
 3596 03f5 95010000 		.4byte	.LASF40
 3597 03f9 01       		.byte	0x1
 3598 03fa 1301     		.2byte	0x113
 3599 03fc 81000000 		.4byte	0x81
 3600 0400 76050000 		.4byte	.LLST27
 3601 0404 14       		.uleb128 0x14
 3602 0405 0F020000 		.4byte	.LASF41
 3603 0409 01       		.byte	0x1
 3604 040a 1401     		.2byte	0x114
 3605 040c 36010000 		.4byte	0x136
 3606 0410 02       		.uleb128 0x2
 3607 0411 91       		.byte	0x91
 3608 0412 58       		.sleb128 -40
ARM GAS  C:\Users\Shaunak\AppData\Local\Temp\ccVo5zvX.s 			page 77


 3609 0413 14       		.uleb128 0x14
 3610 0414 C5030000 		.4byte	.LASF42
 3611 0418 01       		.byte	0x1
 3612 0419 1501     		.2byte	0x115
 3613 041b 36010000 		.4byte	0x136
 3614 041f 02       		.uleb128 0x2
 3615 0420 91       		.byte	0x91
 3616 0421 60       		.sleb128 -32
 3617 0422 10       		.uleb128 0x10
 3618 0423 1C010000 		.4byte	.LVL105
 3619 0427 97000000 		.4byte	0x97
 3620 042b 11       		.uleb128 0x11
 3621 042c 01       		.uleb128 0x1
 3622 042d 50       		.byte	0x50
 3623 042e 02       		.uleb128 0x2
 3624 042f 74       		.byte	0x74
 3625 0430 00       		.sleb128 0
 3626 0431 11       		.uleb128 0x11
 3627 0432 01       		.uleb128 0x1
 3628 0433 51       		.byte	0x51
 3629 0434 01       		.uleb128 0x1
 3630 0435 36       		.byte	0x36
 3631 0436 00       		.byte	0
 3632 0437 00       		.byte	0
 3633 0438 12       		.uleb128 0x12
 3634 0439 66000000 		.4byte	.LVL88
 3635 043d 97000000 		.4byte	0x97
 3636 0441 54040000 		.4byte	0x454
 3637 0445 11       		.uleb128 0x11
 3638 0446 01       		.uleb128 0x1
 3639 0447 50       		.byte	0x50
 3640 0448 05       		.uleb128 0x5
 3641 0449 03       		.byte	0x3
 3642 044a 00000000 		.4byte	modbus_response_read_coil
 3643 044e 11       		.uleb128 0x11
 3644 044f 01       		.uleb128 0x1
 3645 0450 51       		.byte	0x51
 3646 0451 01       		.uleb128 0x1
 3647 0452 33       		.byte	0x33
 3648 0453 00       		.byte	0
 3649 0454 10       		.uleb128 0x10
 3650 0455 96000000 		.4byte	.LVL93
 3651 0459 97000000 		.4byte	0x97
 3652 045d 11       		.uleb128 0x11
 3653 045e 01       		.uleb128 0x1
 3654 045f 50       		.byte	0x50
 3655 0460 05       		.uleb128 0x5
 3656 0461 03       		.byte	0x3
 3657 0462 00000000 		.4byte	modbus_response_read_coil
 3658 0466 11       		.uleb128 0x11
 3659 0467 01       		.uleb128 0x1
 3660 0468 51       		.byte	0x51
 3661 0469 01       		.uleb128 0x1
 3662 046a 33       		.byte	0x33
 3663 046b 00       		.byte	0
 3664 046c 00       		.byte	0
 3665 046d 10       		.uleb128 0x10
ARM GAS  C:\Users\Shaunak\AppData\Local\Temp\ccVo5zvX.s 			page 78


 3666 046e 10000000 		.4byte	.LVL82
 3667 0472 97000000 		.4byte	0x97
 3668 0476 11       		.uleb128 0x11
 3669 0477 01       		.uleb128 0x1
 3670 0478 50       		.byte	0x50
 3671 0479 02       		.uleb128 0x2
 3672 047a 75       		.byte	0x75
 3673 047b 00       		.sleb128 0
 3674 047c 11       		.uleb128 0x11
 3675 047d 01       		.uleb128 0x1
 3676 047e 51       		.byte	0x51
 3677 047f 02       		.uleb128 0x2
 3678 0480 74       		.byte	0x74
 3679 0481 7E       		.sleb128 -2
 3680 0482 00       		.byte	0
 3681 0483 00       		.byte	0
 3682 0484 15       		.uleb128 0x15
 3683 0485 3F080000 		.4byte	.LASF43
 3684 0489 01       		.byte	0x1
 3685 048a 2F01     		.2byte	0x12f
 3686 048c 00000000 		.4byte	.LFB5
 3687 0490 90040000 		.4byte	.LFE5-.LFB5
 3688 0494 01       		.uleb128 0x1
 3689 0495 9C       		.byte	0x9c
 3690 0496 76060000 		.4byte	0x676
 3691 049a 16       		.uleb128 0x16
 3692 049b 15030000 		.4byte	.LASF22
 3693 049f 01       		.byte	0x1
 3694 04a0 2F01     		.2byte	0x12f
 3695 04a2 5D020000 		.4byte	0x25d
 3696 04a6 89050000 		.4byte	.LLST28
 3697 04aa 16       		.uleb128 0x16
 3698 04ab F7010000 		.4byte	.LASF23
 3699 04af 01       		.byte	0x1
 3700 04b0 2F01     		.2byte	0x12f
 3701 04b2 81000000 		.4byte	0x81
 3702 04b6 B5050000 		.4byte	.LLST29
 3703 04ba 0E       		.uleb128 0xe
 3704 04bb 2E000000 		.4byte	.LBB8
 3705 04bf 4C040000 		.4byte	.LBE8-.LBB8
 3706 04c3 5F060000 		.4byte	0x65f
 3707 04c7 13       		.uleb128 0x13
 3708 04c8 19010000 		.4byte	.LASF44
 3709 04cc 01       		.byte	0x1
 3710 04cd 3401     		.2byte	0x134
 3711 04cf 8C000000 		.4byte	0x8c
 3712 04d3 D6050000 		.4byte	.LLST30
 3713 04d7 13       		.uleb128 0x13
 3714 04d8 39060000 		.4byte	.LASF26
 3715 04dc 01       		.byte	0x1
 3716 04dd 3501     		.2byte	0x135
 3717 04df 8C000000 		.4byte	0x8c
 3718 04e3 2B060000 		.4byte	.LLST31
 3719 04e7 0E       		.uleb128 0xe
 3720 04e8 A2000000 		.4byte	.LBB9
 3721 04ec D8030000 		.4byte	.LBE9-.LBB9
 3722 04f0 2A060000 		.4byte	0x62a
ARM GAS  C:\Users\Shaunak\AppData\Local\Temp\ccVo5zvX.s 			page 79


 3723 04f4 13       		.uleb128 0x13
 3724 04f5 A8010000 		.4byte	.LASF45
 3725 04f9 01       		.byte	0x1
 3726 04fa 4D01     		.2byte	0x14d
 3727 04fc 81000000 		.4byte	0x81
 3728 0500 75060000 		.4byte	.LLST32
 3729 0504 13       		.uleb128 0x13
 3730 0505 B3050000 		.4byte	.LASF46
 3731 0509 01       		.byte	0x1
 3732 050a 4E01     		.2byte	0x14e
 3733 050c 81000000 		.4byte	0x81
 3734 0510 00070000 		.4byte	.LLST33
 3735 0514 13       		.uleb128 0x13
 3736 0515 95010000 		.4byte	.LASF40
 3737 0519 01       		.byte	0x1
 3738 051a 4F01     		.2byte	0x14f
 3739 051c 81000000 		.4byte	0x81
 3740 0520 17070000 		.4byte	.LLST34
 3741 0524 14       		.uleb128 0x14
 3742 0525 76050000 		.4byte	.LASF47
 3743 0529 01       		.byte	0x1
 3744 052a 5201     		.2byte	0x152
 3745 052c 36010000 		.4byte	0x136
 3746 0530 02       		.uleb128 0x2
 3747 0531 91       		.byte	0x91
 3748 0532 48       		.sleb128 -56
 3749 0533 14       		.uleb128 0x14
 3750 0534 5B050000 		.4byte	.LASF48
 3751 0538 01       		.byte	0x1
 3752 0539 5301     		.2byte	0x153
 3753 053b 36010000 		.4byte	0x136
 3754 053f 02       		.uleb128 0x2
 3755 0540 91       		.byte	0x91
 3756 0541 50       		.sleb128 -48
 3757 0542 17       		.uleb128 0x17
 3758 0543 7500     		.ascii	"u\000"
 3759 0545 01       		.byte	0x1
 3760 0546 5401     		.2byte	0x154
 3761 0548 81000000 		.4byte	0x81
 3762 054c 82070000 		.4byte	.LLST35
 3763 0550 17       		.uleb128 0x17
 3764 0551 7600     		.ascii	"v\000"
 3765 0553 01       		.byte	0x1
 3766 0554 DA01     		.2byte	0x1da
 3767 0556 81000000 		.4byte	0x81
 3768 055a B2080000 		.4byte	.LLST36
 3769 055e 18       		.uleb128 0x18
 3770 055f E4000000 		.4byte	.LVL124
 3771 0563 02010000 		.4byte	0x102
 3772 0567 18       		.uleb128 0x18
 3773 0568 0E010000 		.4byte	.LVL133
 3774 056c 02010000 		.4byte	0x102
 3775 0570 18       		.uleb128 0x18
 3776 0571 44010000 		.4byte	.LVL142
 3777 0575 02010000 		.4byte	0x102
 3778 0579 18       		.uleb128 0x18
 3779 057a AE010000 		.4byte	.LVL146
ARM GAS  C:\Users\Shaunak\AppData\Local\Temp\ccVo5zvX.s 			page 80


 3780 057e 02010000 		.4byte	0x102
 3781 0582 18       		.uleb128 0x18
 3782 0583 D2010000 		.4byte	.LVL149
 3783 0587 02010000 		.4byte	0x102
 3784 058b 18       		.uleb128 0x18
 3785 058c 2A020000 		.4byte	.LVL152
 3786 0590 02010000 		.4byte	0x102
 3787 0594 12       		.uleb128 0x12
 3788 0595 38020000 		.4byte	.LVL153
 3789 0599 02010000 		.4byte	0x102
 3790 059d A8050000 		.4byte	0x5a8
 3791 05a1 11       		.uleb128 0x11
 3792 05a2 01       		.uleb128 0x1
 3793 05a3 50       		.byte	0x50
 3794 05a4 02       		.uleb128 0x2
 3795 05a5 76       		.byte	0x76
 3796 05a6 00       		.sleb128 0
 3797 05a7 00       		.byte	0
 3798 05a8 18       		.uleb128 0x18
 3799 05a9 5C020000 		.4byte	.LVL154
 3800 05ad 02010000 		.4byte	0x102
 3801 05b1 18       		.uleb128 0x18
 3802 05b2 6C020000 		.4byte	.LVL155
 3803 05b6 02010000 		.4byte	0x102
 3804 05ba 18       		.uleb128 0x18
 3805 05bb 82020000 		.4byte	.LVL156
 3806 05bf 02010000 		.4byte	0x102
 3807 05c3 18       		.uleb128 0x18
 3808 05c4 92020000 		.4byte	.LVL157
 3809 05c8 02010000 		.4byte	0x102
 3810 05cc 18       		.uleb128 0x18
 3811 05cd DE020000 		.4byte	.LVL167
 3812 05d1 02010000 		.4byte	0x102
 3813 05d5 18       		.uleb128 0x18
 3814 05d6 3E030000 		.4byte	.LVL170
 3815 05da 02010000 		.4byte	0x102
 3816 05de 18       		.uleb128 0x18
 3817 05df 62030000 		.4byte	.LVL171
 3818 05e3 02010000 		.4byte	0x102
 3819 05e7 18       		.uleb128 0x18
 3820 05e8 72030000 		.4byte	.LVL172
 3821 05ec 02010000 		.4byte	0x102
 3822 05f0 18       		.uleb128 0x18
 3823 05f1 C4030000 		.4byte	.LVL181
 3824 05f5 02010000 		.4byte	0x102
 3825 05f9 18       		.uleb128 0x18
 3826 05fa FE030000 		.4byte	.LVL184
 3827 05fe 02010000 		.4byte	0x102
 3828 0602 18       		.uleb128 0x18
 3829 0603 22040000 		.4byte	.LVL185
 3830 0607 02010000 		.4byte	0x102
 3831 060b 18       		.uleb128 0x18
 3832 060c 32040000 		.4byte	.LVL186
 3833 0610 02010000 		.4byte	0x102
 3834 0614 10       		.uleb128 0x10
 3835 0615 70040000 		.4byte	.LVL198
 3836 0619 97000000 		.4byte	0x97
ARM GAS  C:\Users\Shaunak\AppData\Local\Temp\ccVo5zvX.s 			page 81


 3837 061d 11       		.uleb128 0x11
 3838 061e 01       		.uleb128 0x1
 3839 061f 50       		.byte	0x50
 3840 0620 02       		.uleb128 0x2
 3841 0621 74       		.byte	0x74
 3842 0622 00       		.sleb128 0
 3843 0623 11       		.uleb128 0x11
 3844 0624 01       		.uleb128 0x1
 3845 0625 51       		.byte	0x51
 3846 0626 01       		.uleb128 0x1
 3847 0627 36       		.byte	0x36
 3848 0628 00       		.byte	0
 3849 0629 00       		.byte	0
 3850 062a 12       		.uleb128 0x12
 3851 062b 68000000 		.4byte	.LVL114
 3852 062f 97000000 		.4byte	0x97
 3853 0633 46060000 		.4byte	0x646
 3854 0637 11       		.uleb128 0x11
 3855 0638 01       		.uleb128 0x1
 3856 0639 50       		.byte	0x50
 3857 063a 05       		.uleb128 0x5
 3858 063b 03       		.byte	0x3
 3859 063c 00000000 		.4byte	modbus_response_read_coil
 3860 0640 11       		.uleb128 0x11
 3861 0641 01       		.uleb128 0x1
 3862 0642 51       		.byte	0x51
 3863 0643 01       		.uleb128 0x1
 3864 0644 33       		.byte	0x33
 3865 0645 00       		.byte	0
 3866 0646 10       		.uleb128 0x10
 3867 0647 96000000 		.4byte	.LVL117
 3868 064b 97000000 		.4byte	0x97
 3869 064f 11       		.uleb128 0x11
 3870 0650 01       		.uleb128 0x1
 3871 0651 50       		.byte	0x50
 3872 0652 05       		.uleb128 0x5
 3873 0653 03       		.byte	0x3
 3874 0654 00000000 		.4byte	modbus_response_read_coil
 3875 0658 11       		.uleb128 0x11
 3876 0659 01       		.uleb128 0x1
 3877 065a 51       		.byte	0x51
 3878 065b 01       		.uleb128 0x1
 3879 065c 33       		.byte	0x33
 3880 065d 00       		.byte	0
 3881 065e 00       		.byte	0
 3882 065f 10       		.uleb128 0x10
 3883 0660 12000000 		.4byte	.LVL110
 3884 0664 97000000 		.4byte	0x97
 3885 0668 11       		.uleb128 0x11
 3886 0669 01       		.uleb128 0x1
 3887 066a 50       		.byte	0x50
 3888 066b 02       		.uleb128 0x2
 3889 066c 74       		.byte	0x74
 3890 066d 00       		.sleb128 0
 3891 066e 11       		.uleb128 0x11
 3892 066f 01       		.uleb128 0x1
 3893 0670 51       		.byte	0x51
ARM GAS  C:\Users\Shaunak\AppData\Local\Temp\ccVo5zvX.s 			page 82


 3894 0671 02       		.uleb128 0x2
 3895 0672 75       		.byte	0x75
 3896 0673 7E       		.sleb128 -2
 3897 0674 00       		.byte	0
 3898 0675 00       		.byte	0
 3899 0676 15       		.uleb128 0x15
 3900 0677 6E080000 		.4byte	.LASF49
 3901 067b 01       		.byte	0x1
 3902 067c E601     		.2byte	0x1e6
 3903 067e 00000000 		.4byte	.LFB6
 3904 0682 28010000 		.4byte	.LFE6-.LFB6
 3905 0686 01       		.uleb128 0x1
 3906 0687 9C       		.byte	0x9c
 3907 0688 57070000 		.4byte	0x757
 3908 068c 16       		.uleb128 0x16
 3909 068d 15030000 		.4byte	.LASF22
 3910 0691 01       		.byte	0x1
 3911 0692 E601     		.2byte	0x1e6
 3912 0694 5D020000 		.4byte	0x25d
 3913 0698 D0080000 		.4byte	.LLST37
 3914 069c 16       		.uleb128 0x16
 3915 069d F7010000 		.4byte	.LASF23
 3916 06a1 01       		.byte	0x1
 3917 06a2 E601     		.2byte	0x1e6
 3918 06a4 81000000 		.4byte	0x81
 3919 06a8 FC080000 		.4byte	.LLST38
 3920 06ac 0E       		.uleb128 0xe
 3921 06ad 2C000000 		.4byte	.LBB10
 3922 06b1 FC000000 		.4byte	.LBE10-.LBB10
 3923 06b5 40070000 		.4byte	0x740
 3924 06b9 13       		.uleb128 0x13
 3925 06ba CD050000 		.4byte	.LASF50
 3926 06be 01       		.byte	0x1
 3927 06bf ED01     		.2byte	0x1ed
 3928 06c1 8C000000 		.4byte	0x8c
 3929 06c5 1D090000 		.4byte	.LLST39
 3930 06c9 13       		.uleb128 0x13
 3931 06ca 50010000 		.4byte	.LASF51
 3932 06ce 01       		.byte	0x1
 3933 06cf EF01     		.2byte	0x1ef
 3934 06d1 8C000000 		.4byte	0x8c
 3935 06d5 67090000 		.4byte	.LLST40
 3936 06d9 0E       		.uleb128 0xe
 3937 06da A0000000 		.4byte	.LBB11
 3938 06de 88000000 		.4byte	.LBE11-.LBB11
 3939 06e2 0B070000 		.4byte	0x70b
 3940 06e6 17       		.uleb128 0x17
 3941 06e7 7500     		.ascii	"u\000"
 3942 06e9 01       		.byte	0x1
 3943 06ea 0B02     		.2byte	0x20b
 3944 06ec 81000000 		.4byte	0x81
 3945 06f0 A7090000 		.4byte	.LLST41
 3946 06f4 10       		.uleb128 0x10
 3947 06f5 02010000 		.4byte	.LVL220
 3948 06f9 97000000 		.4byte	0x97
 3949 06fd 11       		.uleb128 0x11
 3950 06fe 01       		.uleb128 0x1
ARM GAS  C:\Users\Shaunak\AppData\Local\Temp\ccVo5zvX.s 			page 83


 3951 06ff 50       		.byte	0x50
 3952 0700 02       		.uleb128 0x2
 3953 0701 75       		.byte	0x75
 3954 0702 00       		.sleb128 0
 3955 0703 11       		.uleb128 0x11
 3956 0704 01       		.uleb128 0x1
 3957 0705 51       		.byte	0x51
 3958 0706 02       		.uleb128 0x2
 3959 0707 74       		.byte	0x74
 3960 0708 7E       		.sleb128 -2
 3961 0709 00       		.byte	0
 3962 070a 00       		.byte	0
 3963 070b 12       		.uleb128 0x12
 3964 070c 62000000 		.4byte	.LVL209
 3965 0710 97000000 		.4byte	0x97
 3966 0714 27070000 		.4byte	0x727
 3967 0718 11       		.uleb128 0x11
 3968 0719 01       		.uleb128 0x1
 3969 071a 50       		.byte	0x50
 3970 071b 05       		.uleb128 0x5
 3971 071c 03       		.byte	0x3
 3972 071d 00000000 		.4byte	modbus_response_read_coil
 3973 0721 11       		.uleb128 0x11
 3974 0722 01       		.uleb128 0x1
 3975 0723 51       		.byte	0x51
 3976 0724 01       		.uleb128 0x1
 3977 0725 33       		.byte	0x33
 3978 0726 00       		.byte	0
 3979 0727 10       		.uleb128 0x10
 3980 0728 94000000 		.4byte	.LVL213
 3981 072c 97000000 		.4byte	0x97
 3982 0730 11       		.uleb128 0x11
 3983 0731 01       		.uleb128 0x1
 3984 0732 50       		.byte	0x50
 3985 0733 05       		.uleb128 0x5
 3986 0734 03       		.byte	0x3
 3987 0735 00000000 		.4byte	modbus_response_read_coil
 3988 0739 11       		.uleb128 0x11
 3989 073a 01       		.uleb128 0x1
 3990 073b 51       		.byte	0x51
 3991 073c 01       		.uleb128 0x1
 3992 073d 33       		.byte	0x33
 3993 073e 00       		.byte	0
 3994 073f 00       		.byte	0
 3995 0740 10       		.uleb128 0x10
 3996 0741 0E000000 		.4byte	.LVL202
 3997 0745 97000000 		.4byte	0x97
 3998 0749 11       		.uleb128 0x11
 3999 074a 01       		.uleb128 0x1
 4000 074b 50       		.byte	0x50
 4001 074c 02       		.uleb128 0x2
 4002 074d 75       		.byte	0x75
 4003 074e 00       		.sleb128 0
 4004 074f 11       		.uleb128 0x11
 4005 0750 01       		.uleb128 0x1
 4006 0751 51       		.byte	0x51
 4007 0752 02       		.uleb128 0x2
ARM GAS  C:\Users\Shaunak\AppData\Local\Temp\ccVo5zvX.s 			page 84


 4008 0753 74       		.byte	0x74
 4009 0754 7E       		.sleb128 -2
 4010 0755 00       		.byte	0
 4011 0756 00       		.byte	0
 4012 0757 15       		.uleb128 0x15
 4013 0758 89060000 		.4byte	.LASF52
 4014 075c 01       		.byte	0x1
 4015 075d 1F02     		.2byte	0x21f
 4016 075f 00000000 		.4byte	.LFB7
 4017 0763 28010000 		.4byte	.LFE7-.LFB7
 4018 0767 01       		.uleb128 0x1
 4019 0768 9C       		.byte	0x9c
 4020 0769 38080000 		.4byte	0x838
 4021 076d 16       		.uleb128 0x16
 4022 076e 15030000 		.4byte	.LASF22
 4023 0772 01       		.byte	0x1
 4024 0773 1F02     		.2byte	0x21f
 4025 0775 5D020000 		.4byte	0x25d
 4026 0779 D1090000 		.4byte	.LLST42
 4027 077d 16       		.uleb128 0x16
 4028 077e F7010000 		.4byte	.LASF23
 4029 0782 01       		.byte	0x1
 4030 0783 1F02     		.2byte	0x21f
 4031 0785 81000000 		.4byte	0x81
 4032 0789 FD090000 		.4byte	.LLST43
 4033 078d 0E       		.uleb128 0xe
 4034 078e 2C000000 		.4byte	.LBB12
 4035 0792 FC000000 		.4byte	.LBE12-.LBB12
 4036 0796 21080000 		.4byte	0x821
 4037 079a 13       		.uleb128 0x13
 4038 079b D3060000 		.4byte	.LASF53
 4039 079f 01       		.byte	0x1
 4040 07a0 2602     		.2byte	0x226
 4041 07a2 8C000000 		.4byte	0x8c
 4042 07a6 1E0A0000 		.4byte	.LLST44
 4043 07aa 13       		.uleb128 0x13
 4044 07ab 63030000 		.4byte	.LASF54
 4045 07af 01       		.byte	0x1
 4046 07b0 2802     		.2byte	0x228
 4047 07b2 8C000000 		.4byte	0x8c
 4048 07b6 680A0000 		.4byte	.LLST45
 4049 07ba 0E       		.uleb128 0xe
 4050 07bb A0000000 		.4byte	.LBB13
 4051 07bf 88000000 		.4byte	.LBE13-.LBB13
 4052 07c3 EC070000 		.4byte	0x7ec
 4053 07c7 17       		.uleb128 0x17
 4054 07c8 7500     		.ascii	"u\000"
 4055 07ca 01       		.byte	0x1
 4056 07cb 4402     		.2byte	0x244
 4057 07cd 81000000 		.4byte	0x81
 4058 07d1 A80A0000 		.4byte	.LLST46
 4059 07d5 10       		.uleb128 0x10
 4060 07d6 02010000 		.4byte	.LVL242
 4061 07da 97000000 		.4byte	0x97
 4062 07de 11       		.uleb128 0x11
 4063 07df 01       		.uleb128 0x1
 4064 07e0 50       		.byte	0x50
ARM GAS  C:\Users\Shaunak\AppData\Local\Temp\ccVo5zvX.s 			page 85


 4065 07e1 02       		.uleb128 0x2
 4066 07e2 75       		.byte	0x75
 4067 07e3 00       		.sleb128 0
 4068 07e4 11       		.uleb128 0x11
 4069 07e5 01       		.uleb128 0x1
 4070 07e6 51       		.byte	0x51
 4071 07e7 02       		.uleb128 0x2
 4072 07e8 74       		.byte	0x74
 4073 07e9 7E       		.sleb128 -2
 4074 07ea 00       		.byte	0
 4075 07eb 00       		.byte	0
 4076 07ec 12       		.uleb128 0x12
 4077 07ed 62000000 		.4byte	.LVL231
 4078 07f1 97000000 		.4byte	0x97
 4079 07f5 08080000 		.4byte	0x808
 4080 07f9 11       		.uleb128 0x11
 4081 07fa 01       		.uleb128 0x1
 4082 07fb 50       		.byte	0x50
 4083 07fc 05       		.uleb128 0x5
 4084 07fd 03       		.byte	0x3
 4085 07fe 00000000 		.4byte	modbus_response_read_coil
 4086 0802 11       		.uleb128 0x11
 4087 0803 01       		.uleb128 0x1
 4088 0804 51       		.byte	0x51
 4089 0805 01       		.uleb128 0x1
 4090 0806 33       		.byte	0x33
 4091 0807 00       		.byte	0
 4092 0808 10       		.uleb128 0x10
 4093 0809 94000000 		.4byte	.LVL235
 4094 080d 97000000 		.4byte	0x97
 4095 0811 11       		.uleb128 0x11
 4096 0812 01       		.uleb128 0x1
 4097 0813 50       		.byte	0x50
 4098 0814 05       		.uleb128 0x5
 4099 0815 03       		.byte	0x3
 4100 0816 00000000 		.4byte	modbus_response_read_coil
 4101 081a 11       		.uleb128 0x11
 4102 081b 01       		.uleb128 0x1
 4103 081c 51       		.byte	0x51
 4104 081d 01       		.uleb128 0x1
 4105 081e 33       		.byte	0x33
 4106 081f 00       		.byte	0
 4107 0820 00       		.byte	0
 4108 0821 10       		.uleb128 0x10
 4109 0822 0E000000 		.4byte	.LVL224
 4110 0826 97000000 		.4byte	0x97
 4111 082a 11       		.uleb128 0x11
 4112 082b 01       		.uleb128 0x1
 4113 082c 50       		.byte	0x50
 4114 082d 02       		.uleb128 0x2
 4115 082e 75       		.byte	0x75
 4116 082f 00       		.sleb128 0
 4117 0830 11       		.uleb128 0x11
 4118 0831 01       		.uleb128 0x1
 4119 0832 51       		.byte	0x51
 4120 0833 02       		.uleb128 0x2
 4121 0834 74       		.byte	0x74
ARM GAS  C:\Users\Shaunak\AppData\Local\Temp\ccVo5zvX.s 			page 86


 4122 0835 7E       		.sleb128 -2
 4123 0836 00       		.byte	0
 4124 0837 00       		.byte	0
 4125 0838 15       		.uleb128 0x15
 4126 0839 F1030000 		.4byte	.LASF55
 4127 083d 01       		.byte	0x1
 4128 083e 5802     		.2byte	0x258
 4129 0840 00000000 		.4byte	.LFB8
 4130 0844 B8000000 		.4byte	.LFE8-.LFB8
 4131 0848 01       		.uleb128 0x1
 4132 0849 9C       		.byte	0x9c
 4133 084a EE080000 		.4byte	0x8ee
 4134 084e 16       		.uleb128 0x16
 4135 084f 15030000 		.4byte	.LASF22
 4136 0853 01       		.byte	0x1
 4137 0854 5802     		.2byte	0x258
 4138 0856 5D020000 		.4byte	0x25d
 4139 085a D20A0000 		.4byte	.LLST47
 4140 085e 16       		.uleb128 0x16
 4141 085f F7010000 		.4byte	.LASF23
 4142 0863 01       		.byte	0x1
 4143 0864 5802     		.2byte	0x258
 4144 0866 81000000 		.4byte	0x81
 4145 086a FE0A0000 		.4byte	.LLST48
 4146 086e 0E       		.uleb128 0xe
 4147 086f 2C000000 		.4byte	.LBB14
 4148 0873 8C000000 		.4byte	.LBE14-.LBB14
 4149 0877 D7080000 		.4byte	0x8d7
 4150 087b 13       		.uleb128 0x13
 4151 087c 7C020000 		.4byte	.LASF56
 4152 0880 01       		.byte	0x1
 4153 0881 5F02     		.2byte	0x25f
 4154 0883 8C000000 		.4byte	0x8c
 4155 0887 1F0B0000 		.4byte	.LLST49
 4156 088b 0E       		.uleb128 0xe
 4157 088c 62000000 		.4byte	.LBB15
 4158 0890 56000000 		.4byte	.LBE15-.LBB15
 4159 0894 BE080000 		.4byte	0x8be
 4160 0898 13       		.uleb128 0x13
 4161 0899 6B060000 		.4byte	.LASF57
 4162 089d 01       		.byte	0x1
 4163 089e 6D02     		.2byte	0x26d
 4164 08a0 8C000000 		.4byte	0x8c
 4165 08a4 590B0000 		.4byte	.LLST50
 4166 08a8 10       		.uleb128 0x10
 4167 08a9 98000000 		.4byte	.LVL255
 4168 08ad 97000000 		.4byte	0x97
 4169 08b1 11       		.uleb128 0x11
 4170 08b2 01       		.uleb128 0x1
 4171 08b3 50       		.byte	0x50
 4172 08b4 02       		.uleb128 0x2
 4173 08b5 74       		.byte	0x74
 4174 08b6 00       		.sleb128 0
 4175 08b7 11       		.uleb128 0x11
 4176 08b8 01       		.uleb128 0x1
 4177 08b9 51       		.byte	0x51
 4178 08ba 01       		.uleb128 0x1
ARM GAS  C:\Users\Shaunak\AppData\Local\Temp\ccVo5zvX.s 			page 87


 4179 08bb 36       		.byte	0x36
 4180 08bc 00       		.byte	0
 4181 08bd 00       		.byte	0
 4182 08be 10       		.uleb128 0x10
 4183 08bf 56000000 		.4byte	.LVL250
 4184 08c3 97000000 		.4byte	0x97
 4185 08c7 11       		.uleb128 0x11
 4186 08c8 01       		.uleb128 0x1
 4187 08c9 50       		.byte	0x50
 4188 08ca 05       		.uleb128 0x5
 4189 08cb 03       		.byte	0x3
 4190 08cc 00000000 		.4byte	modbus_response_read_coil
 4191 08d0 11       		.uleb128 0x11
 4192 08d1 01       		.uleb128 0x1
 4193 08d2 51       		.byte	0x51
 4194 08d3 01       		.uleb128 0x1
 4195 08d4 33       		.byte	0x33
 4196 08d5 00       		.byte	0
 4197 08d6 00       		.byte	0
 4198 08d7 10       		.uleb128 0x10
 4199 08d8 0E000000 		.4byte	.LVL246
 4200 08dc 97000000 		.4byte	0x97
 4201 08e0 11       		.uleb128 0x11
 4202 08e1 01       		.uleb128 0x1
 4203 08e2 50       		.byte	0x50
 4204 08e3 02       		.uleb128 0x2
 4205 08e4 75       		.byte	0x75
 4206 08e5 00       		.sleb128 0
 4207 08e6 11       		.uleb128 0x11
 4208 08e7 01       		.uleb128 0x1
 4209 08e8 51       		.byte	0x51
 4210 08e9 02       		.uleb128 0x2
 4211 08ea 74       		.byte	0x74
 4212 08eb 7E       		.sleb128 -2
 4213 08ec 00       		.byte	0
 4214 08ed 00       		.byte	0
 4215 08ee 15       		.uleb128 0x15
 4216 08ef 3F070000 		.4byte	.LASF58
 4217 08f3 01       		.byte	0x1
 4218 08f4 7D02     		.2byte	0x27d
 4219 08f6 00000000 		.4byte	.LFB9
 4220 08fa 10010000 		.4byte	.LFE9-.LFB9
 4221 08fe 01       		.uleb128 0x1
 4222 08ff 9C       		.byte	0x9c
 4223 0900 CA090000 		.4byte	0x9ca
 4224 0904 16       		.uleb128 0x16
 4225 0905 15030000 		.4byte	.LASF22
 4226 0909 01       		.byte	0x1
 4227 090a 7D02     		.2byte	0x27d
 4228 090c 5D020000 		.4byte	0x25d
 4229 0910 6C0B0000 		.4byte	.LLST51
 4230 0914 16       		.uleb128 0x16
 4231 0915 F7010000 		.4byte	.LASF23
 4232 0919 01       		.byte	0x1
 4233 091a 7D02     		.2byte	0x27d
 4234 091c 81000000 		.4byte	0x81
 4235 0920 980B0000 		.4byte	.LLST52
ARM GAS  C:\Users\Shaunak\AppData\Local\Temp\ccVo5zvX.s 			page 88


 4236 0924 0E       		.uleb128 0xe
 4237 0925 2C000000 		.4byte	.LBB16
 4238 0929 E4000000 		.4byte	.LBE16-.LBB16
 4239 092d B3090000 		.4byte	0x9b3
 4240 0931 13       		.uleb128 0x13
 4241 0932 3C050000 		.4byte	.LASF59
 4242 0936 01       		.byte	0x1
 4243 0937 8402     		.2byte	0x284
 4244 0939 8C000000 		.4byte	0x8c
 4245 093d B90B0000 		.4byte	.LLST53
 4246 0941 13       		.uleb128 0x13
 4247 0942 C1010000 		.4byte	.LASF60
 4248 0946 01       		.byte	0x1
 4249 0947 8502     		.2byte	0x285
 4250 0949 8C000000 		.4byte	0x8c
 4251 094d F80B0000 		.4byte	.LLST54
 4252 0951 19       		.uleb128 0x19
 4253 0952 00000000 		.4byte	.Ldebug_ranges0+0
 4254 0956 7E090000 		.4byte	0x97e
 4255 095a 17       		.uleb128 0x17
 4256 095b 6900     		.ascii	"i\000"
 4257 095d 01       		.byte	0x1
 4258 095e 9D02     		.2byte	0x29d
 4259 0960 81000000 		.4byte	0x81
 4260 0964 480C0000 		.4byte	.LLST55
 4261 0968 10       		.uleb128 0x10
 4262 0969 EE000000 		.4byte	.LVL278
 4263 096d 97000000 		.4byte	0x97
 4264 0971 11       		.uleb128 0x11
 4265 0972 01       		.uleb128 0x1
 4266 0973 50       		.byte	0x50
 4267 0974 02       		.uleb128 0x2
 4268 0975 74       		.byte	0x74
 4269 0976 00       		.sleb128 0
 4270 0977 11       		.uleb128 0x11
 4271 0978 01       		.uleb128 0x1
 4272 0979 51       		.byte	0x51
 4273 097a 01       		.uleb128 0x1
 4274 097b 36       		.byte	0x36
 4275 097c 00       		.byte	0
 4276 097d 00       		.byte	0
 4277 097e 12       		.uleb128 0x12
 4278 097f 5E000000 		.4byte	.LVL265
 4279 0983 97000000 		.4byte	0x97
 4280 0987 9A090000 		.4byte	0x99a
 4281 098b 11       		.uleb128 0x11
 4282 098c 01       		.uleb128 0x1
 4283 098d 50       		.byte	0x50
 4284 098e 05       		.uleb128 0x5
 4285 098f 03       		.byte	0x3
 4286 0990 00000000 		.4byte	modbus_response_read_coil
 4287 0994 11       		.uleb128 0x11
 4288 0995 01       		.uleb128 0x1
 4289 0996 51       		.byte	0x51
 4290 0997 01       		.uleb128 0x1
 4291 0998 33       		.byte	0x33
 4292 0999 00       		.byte	0
ARM GAS  C:\Users\Shaunak\AppData\Local\Temp\ccVo5zvX.s 			page 89


 4293 099a 10       		.uleb128 0x10
 4294 099b 90000000 		.4byte	.LVL270
 4295 099f 97000000 		.4byte	0x97
 4296 09a3 11       		.uleb128 0x11
 4297 09a4 01       		.uleb128 0x1
 4298 09a5 50       		.byte	0x50
 4299 09a6 05       		.uleb128 0x5
 4300 09a7 03       		.byte	0x3
 4301 09a8 00000000 		.4byte	modbus_response_read_coil
 4302 09ac 11       		.uleb128 0x11
 4303 09ad 01       		.uleb128 0x1
 4304 09ae 51       		.byte	0x51
 4305 09af 01       		.uleb128 0x1
 4306 09b0 33       		.byte	0x33
 4307 09b1 00       		.byte	0
 4308 09b2 00       		.byte	0
 4309 09b3 10       		.uleb128 0x10
 4310 09b4 0E000000 		.4byte	.LVL259
 4311 09b8 97000000 		.4byte	0x97
 4312 09bc 11       		.uleb128 0x11
 4313 09bd 01       		.uleb128 0x1
 4314 09be 50       		.byte	0x50
 4315 09bf 02       		.uleb128 0x2
 4316 09c0 75       		.byte	0x75
 4317 09c1 00       		.sleb128 0
 4318 09c2 11       		.uleb128 0x11
 4319 09c3 01       		.uleb128 0x1
 4320 09c4 51       		.byte	0x51
 4321 09c5 02       		.uleb128 0x2
 4322 09c6 74       		.byte	0x74
 4323 09c7 7E       		.sleb128 -2
 4324 09c8 00       		.byte	0
 4325 09c9 00       		.byte	0
 4326 09ca 0A       		.uleb128 0xa
 4327 09cb 37000000 		.4byte	0x37
 4328 09cf DA090000 		.4byte	0x9da
 4329 09d3 0B       		.uleb128 0xb
 4330 09d4 46010000 		.4byte	0x146
 4331 09d8 FF       		.byte	0xff
 4332 09d9 00       		.byte	0
 4333 09da 0D       		.uleb128 0xd
 4334 09db F6070000 		.4byte	.LASF61
 4335 09df 01       		.byte	0x1
 4336 09e0 33       		.byte	0x33
 4337 09e1 EB090000 		.4byte	0x9eb
 4338 09e5 05       		.uleb128 0x5
 4339 09e6 03       		.byte	0x3
 4340 09e7 00000000 		.4byte	auchCRCHi
 4341 09eb 1A       		.uleb128 0x1a
 4342 09ec CA090000 		.4byte	0x9ca
 4343 09f0 0D       		.uleb128 0xd
 4344 09f1 3D000000 		.4byte	.LASF62
 4345 09f5 01       		.byte	0x1
 4346 09f6 48       		.byte	0x48
 4347 09f7 010A0000 		.4byte	0xa01
 4348 09fb 05       		.uleb128 0x5
 4349 09fc 03       		.byte	0x3
ARM GAS  C:\Users\Shaunak\AppData\Local\Temp\ccVo5zvX.s 			page 90


 4350 09fd 00010000 		.4byte	auchCRCLo
 4351 0a01 1A       		.uleb128 0x1a
 4352 0a02 CA090000 		.4byte	0x9ca
 4353 0a06 1B       		.uleb128 0x1b
 4354 0a07 17040000 		.4byte	.LASF63
 4355 0a0b 01       		.byte	0x1
 4356 0a0c 13       		.byte	0x13
 4357 0a0d 81000000 		.4byte	0x81
 4358 0a11 05       		.uleb128 0x5
 4359 0a12 03       		.byte	0x3
 4360 0a13 00000000 		.4byte	modbus_response_data_length
 4361 0a17 0A       		.uleb128 0xa
 4362 0a18 8C000000 		.4byte	0x8c
 4363 0a1c 270A0000 		.4byte	0xa27
 4364 0a20 0B       		.uleb128 0xb
 4365 0a21 46010000 		.4byte	0x146
 4366 0a25 3F       		.byte	0x3f
 4367 0a26 00       		.byte	0
 4368 0a27 1B       		.uleb128 0x1b
 4369 0a28 ED020000 		.4byte	.LASF64
 4370 0a2c 01       		.byte	0x1
 4371 0a2d 14       		.byte	0x14
 4372 0a2e 170A0000 		.4byte	0xa17
 4373 0a32 05       		.uleb128 0x5
 4374 0a33 03       		.byte	0x3
 4375 0a34 00000000 		.4byte	modbus_holding_registers_value
 4376 0a38 0A       		.uleb128 0xa
 4377 0a39 81000000 		.4byte	0x81
 4378 0a3d 480A0000 		.4byte	0xa48
 4379 0a41 0B       		.uleb128 0xb
 4380 0a42 46010000 		.4byte	0x146
 4381 0a46 3F       		.byte	0x3f
 4382 0a47 00       		.byte	0
 4383 0a48 1B       		.uleb128 0x1b
 4384 0a49 95020000 		.4byte	.LASF65
 4385 0a4d 01       		.byte	0x1
 4386 0a4e 15       		.byte	0x15
 4387 0a4f 380A0000 		.4byte	0xa38
 4388 0a53 05       		.uleb128 0x5
 4389 0a54 03       		.byte	0x3
 4390 0a55 00000000 		.4byte	modbus_holding_registers_value_H
 4391 0a59 1B       		.uleb128 0x1b
 4392 0a5a 34020000 		.4byte	.LASF66
 4393 0a5e 01       		.byte	0x1
 4394 0a5f 16       		.byte	0x16
 4395 0a60 380A0000 		.4byte	0xa38
 4396 0a64 05       		.uleb128 0x5
 4397 0a65 03       		.byte	0x3
 4398 0a66 00000000 		.4byte	modbus_holding_registers_value_L
 4399 0a6a 1B       		.uleb128 0x1b
 4400 0a6b 46030000 		.4byte	.LASF67
 4401 0a6f 01       		.byte	0x1
 4402 0a70 17       		.byte	0x17
 4403 0a71 170A0000 		.4byte	0xa17
 4404 0a75 05       		.uleb128 0x5
 4405 0a76 03       		.byte	0x3
 4406 0a77 00000000 		.4byte	modbus_input_registers_value
ARM GAS  C:\Users\Shaunak\AppData\Local\Temp\ccVo5zvX.s 			page 91


 4407 0a7b 1B       		.uleb128 0x1b
 4408 0a7c D8010000 		.4byte	.LASF68
 4409 0a80 01       		.byte	0x1
 4410 0a81 18       		.byte	0x18
 4411 0a82 380A0000 		.4byte	0xa38
 4412 0a86 05       		.uleb128 0x5
 4413 0a87 03       		.byte	0x3
 4414 0a88 00000000 		.4byte	modbus_input_registers_value_H
 4415 0a8c 1B       		.uleb128 0x1b
 4416 0a8d E9060000 		.4byte	.LASF69
 4417 0a91 01       		.byte	0x1
 4418 0a92 19       		.byte	0x19
 4419 0a93 380A0000 		.4byte	0xa38
 4420 0a97 05       		.uleb128 0x5
 4421 0a98 03       		.byte	0x3
 4422 0a99 00000000 		.4byte	modbus_input_registers_value_L
 4423 0a9d 0A       		.uleb128 0xa
 4424 0a9e 81000000 		.4byte	0x81
 4425 0aa2 AD0A0000 		.4byte	0xaad
 4426 0aa6 0B       		.uleb128 0xb
 4427 0aa7 46010000 		.4byte	0x146
 4428 0aab 08       		.byte	0x8
 4429 0aac 00       		.byte	0
 4430 0aad 1B       		.uleb128 0x1b
 4431 0aae 00080000 		.4byte	.LASF70
 4432 0ab2 01       		.byte	0x1
 4433 0ab3 1A       		.byte	0x1a
 4434 0ab4 9D0A0000 		.4byte	0xa9d
 4435 0ab8 05       		.uleb128 0x5
 4436 0ab9 03       		.byte	0x3
 4437 0aba 00000000 		.4byte	modbus_discrete_input_value
 4438 0abe 1B       		.uleb128 0x1b
 4439 0abf 9E040000 		.4byte	.LASF71
 4440 0ac3 01       		.byte	0x1
 4441 0ac4 1B       		.byte	0x1b
 4442 0ac5 9D0A0000 		.4byte	0xa9d
 4443 0ac9 05       		.uleb128 0x5
 4444 0aca 03       		.byte	0x3
 4445 0acb 00000000 		.4byte	modbus_coil_value
 4446 0acf 0A       		.uleb128 0xa
 4447 0ad0 81000000 		.4byte	0x81
 4448 0ad4 DF0A0000 		.4byte	0xadf
 4449 0ad8 0B       		.uleb128 0xb
 4450 0ad9 46010000 		.4byte	0x146
 4451 0add 0C       		.byte	0xc
 4452 0ade 00       		.byte	0
 4453 0adf 1B       		.uleb128 0x1b
 4454 0ae0 77040000 		.4byte	.LASF72
 4455 0ae4 01       		.byte	0x1
 4456 0ae5 1C       		.byte	0x1c
 4457 0ae6 CF0A0000 		.4byte	0xacf
 4458 0aea 05       		.uleb128 0x5
 4459 0aeb 03       		.byte	0x3
 4460 0aec 00000000 		.4byte	modbus_response_read_coil
 4461 0af0 1B       		.uleb128 0x1b
 4462 0af1 6E000000 		.4byte	.LASF73
 4463 0af5 01       		.byte	0x1
ARM GAS  C:\Users\Shaunak\AppData\Local\Temp\ccVo5zvX.s 			page 92


 4464 0af6 1D       		.byte	0x1d
 4465 0af7 CF0A0000 		.4byte	0xacf
 4466 0afb 05       		.uleb128 0x5
 4467 0afc 03       		.byte	0x3
 4468 0afd 00000000 		.4byte	modbus_response_read_discrete_input
 4469 0b01 0A       		.uleb128 0xa
 4470 0b02 81000000 		.4byte	0x81
 4471 0b06 110B0000 		.4byte	0xb11
 4472 0b0a 0B       		.uleb128 0xb
 4473 0b0b 46010000 		.4byte	0x146
 4474 0b0f 84       		.byte	0x84
 4475 0b10 00       		.byte	0
 4476 0b11 1B       		.uleb128 0x1b
 4477 0b12 B9040000 		.4byte	.LASF74
 4478 0b16 01       		.byte	0x1
 4479 0b17 1E       		.byte	0x1e
 4480 0b18 010B0000 		.4byte	0xb01
 4481 0b1c 05       		.uleb128 0x5
 4482 0b1d 03       		.byte	0x3
 4483 0b1e 00000000 		.4byte	modbus_response_read_holding_registers
 4484 0b22 1B       		.uleb128 0x1b
 4485 0b23 F5040000 		.4byte	.LASF75
 4486 0b27 01       		.byte	0x1
 4487 0b28 1F       		.byte	0x1f
 4488 0b29 36010000 		.4byte	0x136
 4489 0b2d 05       		.uleb128 0x5
 4490 0b2e 03       		.byte	0x3
 4491 0b2f 00000000 		.4byte	modbus_response_preset_single_register
 4492 0b33 1B       		.uleb128 0x1b
 4493 0b34 92000000 		.4byte	.LASF76
 4494 0b38 01       		.byte	0x1
 4495 0b39 20       		.byte	0x20
 4496 0b3a 36010000 		.4byte	0x136
 4497 0b3e 05       		.uleb128 0x5
 4498 0b3f 03       		.byte	0x3
 4499 0b40 00000000 		.4byte	modbus_response_preset_multiple_registers
 4500 0b44 1B       		.uleb128 0x1b
 4501 0b45 18000000 		.4byte	.LASF77
 4502 0b49 01       		.byte	0x1
 4503 0b4a 21       		.byte	0x21
 4504 0b4b 010B0000 		.4byte	0xb01
 4505 0b4f 05       		.uleb128 0x5
 4506 0b50 03       		.byte	0x3
 4507 0b51 00000000 		.4byte	modbus_response_read_input_registers
 4508 0b55 1B       		.uleb128 0x1b
 4509 0b56 81030000 		.4byte	.LASF78
 4510 0b5a 01       		.byte	0x1
 4511 0b5b 22       		.byte	0x22
 4512 0b5c 36010000 		.4byte	0x136
 4513 0b60 05       		.uleb128 0x5
 4514 0b61 03       		.byte	0x3
 4515 0b62 00000000 		.4byte	modbus_response_force_single_coil
 4516 0b66 1B       		.uleb128 0x1b
 4517 0b67 2B010000 		.4byte	.LASF79
 4518 0b6b 01       		.byte	0x1
 4519 0b6c 23       		.byte	0x23
 4520 0b6d 36010000 		.4byte	0x136
ARM GAS  C:\Users\Shaunak\AppData\Local\Temp\ccVo5zvX.s 			page 93


 4521 0b71 05       		.uleb128 0x5
 4522 0b72 03       		.byte	0x3
 4523 0b73 00000000 		.4byte	modbus_response_force_multiple_coils
 4524 0b77 1B       		.uleb128 0x1b
 4525 0b78 25080000 		.4byte	.LASF80
 4526 0b7c 01       		.byte	0x1
 4527 0b7d 24       		.byte	0x24
 4528 0b7e 9D0A0000 		.4byte	0xa9d
 4529 0b82 05       		.uleb128 0x5
 4530 0b83 03       		.byte	0x3
 4531 0b84 00000000 		.4byte	modbus_response_coil_temp
 4532 0b88 1B       		.uleb128 0x1b
 4533 0b89 C6000000 		.4byte	.LASF81
 4534 0b8d 01       		.byte	0x1
 4535 0b8e 25       		.byte	0x25
 4536 0b8f 9D0A0000 		.4byte	0xa9d
 4537 0b93 05       		.uleb128 0x5
 4538 0b94 03       		.byte	0x3
 4539 0b95 00000000 		.4byte	modbus_response_discrete_input_temp
 4540 0b99 1B       		.uleb128 0x1b
 4541 0b9a 47000000 		.4byte	.LASF82
 4542 0b9e 01       		.byte	0x1
 4543 0b9f 26       		.byte	0x26
 4544 0ba0 170A0000 		.4byte	0xa17
 4545 0ba4 05       		.uleb128 0x5
 4546 0ba5 03       		.byte	0x3
 4547 0ba6 00000000 		.4byte	modbus_response_holding_registers_temp
 4548 0baa 1B       		.uleb128 0x1b
 4549 0bab F7050000 		.4byte	.LASF83
 4550 0baf 01       		.byte	0x1
 4551 0bb0 27       		.byte	0x27
 4552 0bb1 170A0000 		.4byte	0xa17
 4553 0bb5 05       		.uleb128 0x5
 4554 0bb6 03       		.byte	0x3
 4555 0bb7 00000000 		.4byte	modbus_response_input_registers_temp
 4556 0bbb 1B       		.uleb128 0x1b
 4557 0bbc 08010000 		.4byte	.LASF84
 4558 0bc0 01       		.byte	0x1
 4559 0bc1 31       		.byte	0x31
 4560 0bc2 50000000 		.4byte	0x50
 4561 0bc6 05       		.uleb128 0x5
 4562 0bc7 03       		.byte	0x3
 4563 0bc8 00000000 		.4byte	crc16
 4564 0bcc 00       		.byte	0
 4565              		.section	.debug_abbrev,"",%progbits
 4566              	.Ldebug_abbrev0:
 4567 0000 01       		.uleb128 0x1
 4568 0001 11       		.uleb128 0x11
 4569 0002 01       		.byte	0x1
 4570 0003 25       		.uleb128 0x25
 4571 0004 0E       		.uleb128 0xe
 4572 0005 13       		.uleb128 0x13
 4573 0006 0B       		.uleb128 0xb
 4574 0007 03       		.uleb128 0x3
 4575 0008 0E       		.uleb128 0xe
 4576 0009 1B       		.uleb128 0x1b
 4577 000a 0E       		.uleb128 0xe
ARM GAS  C:\Users\Shaunak\AppData\Local\Temp\ccVo5zvX.s 			page 94


 4578 000b 55       		.uleb128 0x55
 4579 000c 17       		.uleb128 0x17
 4580 000d 11       		.uleb128 0x11
 4581 000e 01       		.uleb128 0x1
 4582 000f 10       		.uleb128 0x10
 4583 0010 17       		.uleb128 0x17
 4584 0011 00       		.byte	0
 4585 0012 00       		.byte	0
 4586 0013 02       		.uleb128 0x2
 4587 0014 24       		.uleb128 0x24
 4588 0015 00       		.byte	0
 4589 0016 0B       		.uleb128 0xb
 4590 0017 0B       		.uleb128 0xb
 4591 0018 3E       		.uleb128 0x3e
 4592 0019 0B       		.uleb128 0xb
 4593 001a 03       		.uleb128 0x3
 4594 001b 0E       		.uleb128 0xe
 4595 001c 00       		.byte	0
 4596 001d 00       		.byte	0
 4597 001e 03       		.uleb128 0x3
 4598 001f 16       		.uleb128 0x16
 4599 0020 00       		.byte	0
 4600 0021 03       		.uleb128 0x3
 4601 0022 0E       		.uleb128 0xe
 4602 0023 3A       		.uleb128 0x3a
 4603 0024 0B       		.uleb128 0xb
 4604 0025 3B       		.uleb128 0x3b
 4605 0026 0B       		.uleb128 0xb
 4606 0027 49       		.uleb128 0x49
 4607 0028 13       		.uleb128 0x13
 4608 0029 00       		.byte	0
 4609 002a 00       		.byte	0
 4610 002b 04       		.uleb128 0x4
 4611 002c 24       		.uleb128 0x24
 4612 002d 00       		.byte	0
 4613 002e 0B       		.uleb128 0xb
 4614 002f 0B       		.uleb128 0xb
 4615 0030 3E       		.uleb128 0x3e
 4616 0031 0B       		.uleb128 0xb
 4617 0032 03       		.uleb128 0x3
 4618 0033 08       		.uleb128 0x8
 4619 0034 00       		.byte	0
 4620 0035 00       		.byte	0
 4621 0036 05       		.uleb128 0x5
 4622 0037 2E       		.uleb128 0x2e
 4623 0038 01       		.byte	0x1
 4624 0039 3F       		.uleb128 0x3f
 4625 003a 19       		.uleb128 0x19
 4626 003b 03       		.uleb128 0x3
 4627 003c 0E       		.uleb128 0xe
 4628 003d 3A       		.uleb128 0x3a
 4629 003e 0B       		.uleb128 0xb
 4630 003f 3B       		.uleb128 0x3b
 4631 0040 0B       		.uleb128 0xb
 4632 0041 27       		.uleb128 0x27
 4633 0042 19       		.uleb128 0x19
 4634 0043 49       		.uleb128 0x49
ARM GAS  C:\Users\Shaunak\AppData\Local\Temp\ccVo5zvX.s 			page 95


 4635 0044 13       		.uleb128 0x13
 4636 0045 11       		.uleb128 0x11
 4637 0046 01       		.uleb128 0x1
 4638 0047 12       		.uleb128 0x12
 4639 0048 06       		.uleb128 0x6
 4640 0049 40       		.uleb128 0x40
 4641 004a 18       		.uleb128 0x18
 4642 004b 9742     		.uleb128 0x2117
 4643 004d 19       		.uleb128 0x19
 4644 004e 01       		.uleb128 0x1
 4645 004f 13       		.uleb128 0x13
 4646 0050 00       		.byte	0
 4647 0051 00       		.byte	0
 4648 0052 06       		.uleb128 0x6
 4649 0053 05       		.uleb128 0x5
 4650 0054 00       		.byte	0
 4651 0055 03       		.uleb128 0x3
 4652 0056 0E       		.uleb128 0xe
 4653 0057 3A       		.uleb128 0x3a
 4654 0058 0B       		.uleb128 0xb
 4655 0059 3B       		.uleb128 0x3b
 4656 005a 0B       		.uleb128 0xb
 4657 005b 49       		.uleb128 0x49
 4658 005c 13       		.uleb128 0x13
 4659 005d 02       		.uleb128 0x2
 4660 005e 17       		.uleb128 0x17
 4661 005f 00       		.byte	0
 4662 0060 00       		.byte	0
 4663 0061 07       		.uleb128 0x7
 4664 0062 34       		.uleb128 0x34
 4665 0063 00       		.byte	0
 4666 0064 03       		.uleb128 0x3
 4667 0065 0E       		.uleb128 0xe
 4668 0066 3A       		.uleb128 0x3a
 4669 0067 0B       		.uleb128 0xb
 4670 0068 3B       		.uleb128 0x3b
 4671 0069 0B       		.uleb128 0xb
 4672 006a 49       		.uleb128 0x49
 4673 006b 13       		.uleb128 0x13
 4674 006c 02       		.uleb128 0x2
 4675 006d 17       		.uleb128 0x17
 4676 006e 00       		.byte	0
 4677 006f 00       		.byte	0
 4678 0070 08       		.uleb128 0x8
 4679 0071 0F       		.uleb128 0xf
 4680 0072 00       		.byte	0
 4681 0073 0B       		.uleb128 0xb
 4682 0074 0B       		.uleb128 0xb
 4683 0075 49       		.uleb128 0x49
 4684 0076 13       		.uleb128 0x13
 4685 0077 00       		.byte	0
 4686 0078 00       		.byte	0
 4687 0079 09       		.uleb128 0x9
 4688 007a 34       		.uleb128 0x34
 4689 007b 00       		.byte	0
 4690 007c 03       		.uleb128 0x3
 4691 007d 0E       		.uleb128 0xe
ARM GAS  C:\Users\Shaunak\AppData\Local\Temp\ccVo5zvX.s 			page 96


 4692 007e 3A       		.uleb128 0x3a
 4693 007f 0B       		.uleb128 0xb
 4694 0080 3B       		.uleb128 0x3b
 4695 0081 0B       		.uleb128 0xb
 4696 0082 49       		.uleb128 0x49
 4697 0083 13       		.uleb128 0x13
 4698 0084 00       		.byte	0
 4699 0085 00       		.byte	0
 4700 0086 0A       		.uleb128 0xa
 4701 0087 01       		.uleb128 0x1
 4702 0088 01       		.byte	0x1
 4703 0089 49       		.uleb128 0x49
 4704 008a 13       		.uleb128 0x13
 4705 008b 01       		.uleb128 0x1
 4706 008c 13       		.uleb128 0x13
 4707 008d 00       		.byte	0
 4708 008e 00       		.byte	0
 4709 008f 0B       		.uleb128 0xb
 4710 0090 21       		.uleb128 0x21
 4711 0091 00       		.byte	0
 4712 0092 49       		.uleb128 0x49
 4713 0093 13       		.uleb128 0x13
 4714 0094 2F       		.uleb128 0x2f
 4715 0095 0B       		.uleb128 0xb
 4716 0096 00       		.byte	0
 4717 0097 00       		.byte	0
 4718 0098 0C       		.uleb128 0xc
 4719 0099 2E       		.uleb128 0x2e
 4720 009a 01       		.byte	0x1
 4721 009b 3F       		.uleb128 0x3f
 4722 009c 19       		.uleb128 0x19
 4723 009d 03       		.uleb128 0x3
 4724 009e 0E       		.uleb128 0xe
 4725 009f 3A       		.uleb128 0x3a
 4726 00a0 0B       		.uleb128 0xb
 4727 00a1 3B       		.uleb128 0x3b
 4728 00a2 0B       		.uleb128 0xb
 4729 00a3 27       		.uleb128 0x27
 4730 00a4 19       		.uleb128 0x19
 4731 00a5 11       		.uleb128 0x11
 4732 00a6 01       		.uleb128 0x1
 4733 00a7 12       		.uleb128 0x12
 4734 00a8 06       		.uleb128 0x6
 4735 00a9 40       		.uleb128 0x40
 4736 00aa 18       		.uleb128 0x18
 4737 00ab 9742     		.uleb128 0x2117
 4738 00ad 19       		.uleb128 0x19
 4739 00ae 01       		.uleb128 0x1
 4740 00af 13       		.uleb128 0x13
 4741 00b0 00       		.byte	0
 4742 00b1 00       		.byte	0
 4743 00b2 0D       		.uleb128 0xd
 4744 00b3 34       		.uleb128 0x34
 4745 00b4 00       		.byte	0
 4746 00b5 03       		.uleb128 0x3
 4747 00b6 0E       		.uleb128 0xe
 4748 00b7 3A       		.uleb128 0x3a
ARM GAS  C:\Users\Shaunak\AppData\Local\Temp\ccVo5zvX.s 			page 97


 4749 00b8 0B       		.uleb128 0xb
 4750 00b9 3B       		.uleb128 0x3b
 4751 00ba 0B       		.uleb128 0xb
 4752 00bb 49       		.uleb128 0x49
 4753 00bc 13       		.uleb128 0x13
 4754 00bd 02       		.uleb128 0x2
 4755 00be 18       		.uleb128 0x18
 4756 00bf 00       		.byte	0
 4757 00c0 00       		.byte	0
 4758 00c1 0E       		.uleb128 0xe
 4759 00c2 0B       		.uleb128 0xb
 4760 00c3 01       		.byte	0x1
 4761 00c4 11       		.uleb128 0x11
 4762 00c5 01       		.uleb128 0x1
 4763 00c6 12       		.uleb128 0x12
 4764 00c7 06       		.uleb128 0x6
 4765 00c8 01       		.uleb128 0x1
 4766 00c9 13       		.uleb128 0x13
 4767 00ca 00       		.byte	0
 4768 00cb 00       		.byte	0
 4769 00cc 0F       		.uleb128 0xf
 4770 00cd 34       		.uleb128 0x34
 4771 00ce 00       		.byte	0
 4772 00cf 03       		.uleb128 0x3
 4773 00d0 08       		.uleb128 0x8
 4774 00d1 3A       		.uleb128 0x3a
 4775 00d2 0B       		.uleb128 0xb
 4776 00d3 3B       		.uleb128 0x3b
 4777 00d4 0B       		.uleb128 0xb
 4778 00d5 49       		.uleb128 0x49
 4779 00d6 13       		.uleb128 0x13
 4780 00d7 02       		.uleb128 0x2
 4781 00d8 17       		.uleb128 0x17
 4782 00d9 00       		.byte	0
 4783 00da 00       		.byte	0
 4784 00db 10       		.uleb128 0x10
 4785 00dc 898201   		.uleb128 0x4109
 4786 00df 01       		.byte	0x1
 4787 00e0 11       		.uleb128 0x11
 4788 00e1 01       		.uleb128 0x1
 4789 00e2 31       		.uleb128 0x31
 4790 00e3 13       		.uleb128 0x13
 4791 00e4 00       		.byte	0
 4792 00e5 00       		.byte	0
 4793 00e6 11       		.uleb128 0x11
 4794 00e7 8A8201   		.uleb128 0x410a
 4795 00ea 00       		.byte	0
 4796 00eb 02       		.uleb128 0x2
 4797 00ec 18       		.uleb128 0x18
 4798 00ed 9142     		.uleb128 0x2111
 4799 00ef 18       		.uleb128 0x18
 4800 00f0 00       		.byte	0
 4801 00f1 00       		.byte	0
 4802 00f2 12       		.uleb128 0x12
 4803 00f3 898201   		.uleb128 0x4109
 4804 00f6 01       		.byte	0x1
 4805 00f7 11       		.uleb128 0x11
ARM GAS  C:\Users\Shaunak\AppData\Local\Temp\ccVo5zvX.s 			page 98


 4806 00f8 01       		.uleb128 0x1
 4807 00f9 31       		.uleb128 0x31
 4808 00fa 13       		.uleb128 0x13
 4809 00fb 01       		.uleb128 0x1
 4810 00fc 13       		.uleb128 0x13
 4811 00fd 00       		.byte	0
 4812 00fe 00       		.byte	0
 4813 00ff 13       		.uleb128 0x13
 4814 0100 34       		.uleb128 0x34
 4815 0101 00       		.byte	0
 4816 0102 03       		.uleb128 0x3
 4817 0103 0E       		.uleb128 0xe
 4818 0104 3A       		.uleb128 0x3a
 4819 0105 0B       		.uleb128 0xb
 4820 0106 3B       		.uleb128 0x3b
 4821 0107 05       		.uleb128 0x5
 4822 0108 49       		.uleb128 0x49
 4823 0109 13       		.uleb128 0x13
 4824 010a 02       		.uleb128 0x2
 4825 010b 17       		.uleb128 0x17
 4826 010c 00       		.byte	0
 4827 010d 00       		.byte	0
 4828 010e 14       		.uleb128 0x14
 4829 010f 34       		.uleb128 0x34
 4830 0110 00       		.byte	0
 4831 0111 03       		.uleb128 0x3
 4832 0112 0E       		.uleb128 0xe
 4833 0113 3A       		.uleb128 0x3a
 4834 0114 0B       		.uleb128 0xb
 4835 0115 3B       		.uleb128 0x3b
 4836 0116 05       		.uleb128 0x5
 4837 0117 49       		.uleb128 0x49
 4838 0118 13       		.uleb128 0x13
 4839 0119 02       		.uleb128 0x2
 4840 011a 18       		.uleb128 0x18
 4841 011b 00       		.byte	0
 4842 011c 00       		.byte	0
 4843 011d 15       		.uleb128 0x15
 4844 011e 2E       		.uleb128 0x2e
 4845 011f 01       		.byte	0x1
 4846 0120 3F       		.uleb128 0x3f
 4847 0121 19       		.uleb128 0x19
 4848 0122 03       		.uleb128 0x3
 4849 0123 0E       		.uleb128 0xe
 4850 0124 3A       		.uleb128 0x3a
 4851 0125 0B       		.uleb128 0xb
 4852 0126 3B       		.uleb128 0x3b
 4853 0127 05       		.uleb128 0x5
 4854 0128 27       		.uleb128 0x27
 4855 0129 19       		.uleb128 0x19
 4856 012a 11       		.uleb128 0x11
 4857 012b 01       		.uleb128 0x1
 4858 012c 12       		.uleb128 0x12
 4859 012d 06       		.uleb128 0x6
 4860 012e 40       		.uleb128 0x40
 4861 012f 18       		.uleb128 0x18
 4862 0130 9742     		.uleb128 0x2117
ARM GAS  C:\Users\Shaunak\AppData\Local\Temp\ccVo5zvX.s 			page 99


 4863 0132 19       		.uleb128 0x19
 4864 0133 01       		.uleb128 0x1
 4865 0134 13       		.uleb128 0x13
 4866 0135 00       		.byte	0
 4867 0136 00       		.byte	0
 4868 0137 16       		.uleb128 0x16
 4869 0138 05       		.uleb128 0x5
 4870 0139 00       		.byte	0
 4871 013a 03       		.uleb128 0x3
 4872 013b 0E       		.uleb128 0xe
 4873 013c 3A       		.uleb128 0x3a
 4874 013d 0B       		.uleb128 0xb
 4875 013e 3B       		.uleb128 0x3b
 4876 013f 05       		.uleb128 0x5
 4877 0140 49       		.uleb128 0x49
 4878 0141 13       		.uleb128 0x13
 4879 0142 02       		.uleb128 0x2
 4880 0143 17       		.uleb128 0x17
 4881 0144 00       		.byte	0
 4882 0145 00       		.byte	0
 4883 0146 17       		.uleb128 0x17
 4884 0147 34       		.uleb128 0x34
 4885 0148 00       		.byte	0
 4886 0149 03       		.uleb128 0x3
 4887 014a 08       		.uleb128 0x8
 4888 014b 3A       		.uleb128 0x3a
 4889 014c 0B       		.uleb128 0xb
 4890 014d 3B       		.uleb128 0x3b
 4891 014e 05       		.uleb128 0x5
 4892 014f 49       		.uleb128 0x49
 4893 0150 13       		.uleb128 0x13
 4894 0151 02       		.uleb128 0x2
 4895 0152 17       		.uleb128 0x17
 4896 0153 00       		.byte	0
 4897 0154 00       		.byte	0
 4898 0155 18       		.uleb128 0x18
 4899 0156 898201   		.uleb128 0x4109
 4900 0159 00       		.byte	0
 4901 015a 11       		.uleb128 0x11
 4902 015b 01       		.uleb128 0x1
 4903 015c 31       		.uleb128 0x31
 4904 015d 13       		.uleb128 0x13
 4905 015e 00       		.byte	0
 4906 015f 00       		.byte	0
 4907 0160 19       		.uleb128 0x19
 4908 0161 0B       		.uleb128 0xb
 4909 0162 01       		.byte	0x1
 4910 0163 55       		.uleb128 0x55
 4911 0164 17       		.uleb128 0x17
 4912 0165 01       		.uleb128 0x1
 4913 0166 13       		.uleb128 0x13
 4914 0167 00       		.byte	0
 4915 0168 00       		.byte	0
 4916 0169 1A       		.uleb128 0x1a
 4917 016a 26       		.uleb128 0x26
 4918 016b 00       		.byte	0
 4919 016c 49       		.uleb128 0x49
ARM GAS  C:\Users\Shaunak\AppData\Local\Temp\ccVo5zvX.s 			page 100


 4920 016d 13       		.uleb128 0x13
 4921 016e 00       		.byte	0
 4922 016f 00       		.byte	0
 4923 0170 1B       		.uleb128 0x1b
 4924 0171 34       		.uleb128 0x34
 4925 0172 00       		.byte	0
 4926 0173 03       		.uleb128 0x3
 4927 0174 0E       		.uleb128 0xe
 4928 0175 3A       		.uleb128 0x3a
 4929 0176 0B       		.uleb128 0xb
 4930 0177 3B       		.uleb128 0x3b
 4931 0178 0B       		.uleb128 0xb
 4932 0179 49       		.uleb128 0x49
 4933 017a 13       		.uleb128 0x13
 4934 017b 3F       		.uleb128 0x3f
 4935 017c 19       		.uleb128 0x19
 4936 017d 02       		.uleb128 0x2
 4937 017e 18       		.uleb128 0x18
 4938 017f 00       		.byte	0
 4939 0180 00       		.byte	0
 4940 0181 00       		.byte	0
 4941              		.section	.debug_loc,"",%progbits
 4942              	.Ldebug_loc0:
 4943              	.LLST0:
 4944 0000 00000000 		.4byte	.LVL0
 4945 0004 08000000 		.4byte	.LVL2
 4946 0008 0100     		.2byte	0x1
 4947 000a 50       		.byte	0x50
 4948 000b 08000000 		.4byte	.LVL2
 4949 000f 1C000000 		.4byte	.LVL8
 4950 0013 0300     		.2byte	0x3
 4951 0015 70       		.byte	0x70
 4952 0016 01       		.sleb128 1
 4953 0017 9F       		.byte	0x9f
 4954 0018 1C000000 		.4byte	.LVL8
 4955 001c 28000000 		.4byte	.LVL10
 4956 0020 0100     		.2byte	0x1
 4957 0022 50       		.byte	0x50
 4958 0023 00000000 		.4byte	0
 4959 0027 00000000 		.4byte	0
 4960              	.LLST1:
 4961 002b 00000000 		.4byte	.LVL0
 4962 002f 08000000 		.4byte	.LVL2
 4963 0033 0100     		.2byte	0x1
 4964 0035 51       		.byte	0x51
 4965 0036 08000000 		.4byte	.LVL2
 4966 003a 1C000000 		.4byte	.LVL8
 4967 003e 0100     		.2byte	0x1
 4968 0040 52       		.byte	0x52
 4969 0041 1C000000 		.4byte	.LVL8
 4970 0045 20000000 		.4byte	.LVL9
 4971 0049 0100     		.2byte	0x1
 4972 004b 51       		.byte	0x51
 4973 004c 20000000 		.4byte	.LVL9
 4974 0050 30000000 		.4byte	.LFE0
 4975 0054 0100     		.2byte	0x1
 4976 0056 52       		.byte	0x52
ARM GAS  C:\Users\Shaunak\AppData\Local\Temp\ccVo5zvX.s 			page 101


 4977 0057 00000000 		.4byte	0
 4978 005b 00000000 		.4byte	0
 4979              	.LLST2:
 4980 005f 02000000 		.4byte	.LVL1
 4981 0063 08000000 		.4byte	.LVL2
 4982 0067 0300     		.2byte	0x3
 4983 0069 09       		.byte	0x9
 4984 006a FF       		.byte	0xff
 4985 006b 9F       		.byte	0x9f
 4986 006c 08000000 		.4byte	.LVL2
 4987 0070 10000000 		.4byte	.LVL4
 4988 0074 0100     		.2byte	0x1
 4989 0076 54       		.byte	0x54
 4990 0077 12000000 		.4byte	.LVL5
 4991 007b 2A000000 		.4byte	.LVL11
 4992 007f 0100     		.2byte	0x1
 4993 0081 54       		.byte	0x54
 4994 0082 00000000 		.4byte	0
 4995 0086 00000000 		.4byte	0
 4996              	.LLST3:
 4997 008a 02000000 		.4byte	.LVL1
 4998 008e 08000000 		.4byte	.LVL2
 4999 0092 0300     		.2byte	0x3
 5000 0094 09       		.byte	0x9
 5001 0095 FF       		.byte	0xff
 5002 0096 9F       		.byte	0x9f
 5003 0097 08000000 		.4byte	.LVL2
 5004 009b 2A000000 		.4byte	.LVL11
 5005 009f 0100     		.2byte	0x1
 5006 00a1 55       		.byte	0x55
 5007 00a2 00000000 		.4byte	0
 5008 00a6 00000000 		.4byte	0
 5009              	.LLST4:
 5010 00aa 0C000000 		.4byte	.LVL3
 5011 00ae 14000000 		.4byte	.LVL6
 5012 00b2 0100     		.2byte	0x1
 5013 00b4 53       		.byte	0x53
 5014 00b5 14000000 		.4byte	.LVL6
 5015 00b9 1C000000 		.4byte	.LVL8
 5016 00bd 0900     		.2byte	0x9
 5017 00bf 73       		.byte	0x73
 5018 00c0 00       		.sleb128 0
 5019 00c1 03       		.byte	0x3
 5020 00c2 00000000 		.4byte	.LANCHOR0
 5021 00c6 1C       		.byte	0x1c
 5022 00c7 9F       		.byte	0x9f
 5023 00c8 00000000 		.4byte	0
 5024 00cc 00000000 		.4byte	0
 5025              	.LLST5:
 5026 00d0 00000000 		.4byte	.LVL12
 5027 00d4 44000000 		.4byte	.LVL13
 5028 00d8 0100     		.2byte	0x1
 5029 00da 50       		.byte	0x50
 5030 00db 44000000 		.4byte	.LVL13
 5031 00df 48000000 		.4byte	.LVL14
 5032 00e3 0400     		.2byte	0x4
 5033 00e5 F3       		.byte	0xf3
ARM GAS  C:\Users\Shaunak\AppData\Local\Temp\ccVo5zvX.s 			page 102


 5034 00e6 01       		.uleb128 0x1
 5035 00e7 50       		.byte	0x50
 5036 00e8 9F       		.byte	0x9f
 5037 00e9 48000000 		.4byte	.LVL14
 5038 00ed 4E000000 		.4byte	.LFE1
 5039 00f1 0100     		.2byte	0x1
 5040 00f3 50       		.byte	0x50
 5041 00f4 00000000 		.4byte	0
 5042 00f8 00000000 		.4byte	0
 5043              	.LLST6:
 5044 00fc 00000000 		.4byte	.LVL15
 5045 0100 0E000000 		.4byte	.LVL16
 5046 0104 0100     		.2byte	0x1
 5047 0106 50       		.byte	0x50
 5048 0107 0E000000 		.4byte	.LVL16
 5049 010b D2000000 		.4byte	.LVL32
 5050 010f 0100     		.2byte	0x1
 5051 0111 55       		.byte	0x55
 5052 0112 D2000000 		.4byte	.LVL32
 5053 0116 D4010000 		.4byte	.LFE2
 5054 011a 0400     		.2byte	0x4
 5055 011c F3       		.byte	0xf3
 5056 011d 01       		.uleb128 0x1
 5057 011e 50       		.byte	0x50
 5058 011f 9F       		.byte	0x9f
 5059 0120 00000000 		.4byte	0
 5060 0124 00000000 		.4byte	0
 5061              	.LLST7:
 5062 0128 00000000 		.4byte	.LVL15
 5063 012c 10000000 		.4byte	.LVL17
 5064 0130 0100     		.2byte	0x1
 5065 0132 51       		.byte	0x51
 5066 0133 10000000 		.4byte	.LVL17
 5067 0137 D4010000 		.4byte	.LFE2
 5068 013b 0400     		.2byte	0x4
 5069 013d F3       		.byte	0xf3
 5070 013e 01       		.uleb128 0x1
 5071 013f 51       		.byte	0x51
 5072 0140 9F       		.byte	0x9f
 5073 0141 00000000 		.4byte	0
 5074 0145 00000000 		.4byte	0
 5075              	.LLST8:
 5076 0149 52000000 		.4byte	.LVL19
 5077 014d 64010000 		.4byte	.LVL43
 5078 0151 0100     		.2byte	0x1
 5079 0153 57       		.byte	0x57
 5080 0154 64010000 		.4byte	.LVL43
 5081 0158 68010000 		.4byte	.LVL44
 5082 015c 0300     		.2byte	0x3
 5083 015e 77       		.byte	0x77
 5084 015f 78       		.sleb128 -8
 5085 0160 9F       		.byte	0x9f
 5086 0161 76010000 		.4byte	.LVL45
 5087 0165 8E010000 		.4byte	.LVL47
 5088 0169 0100     		.2byte	0x1
 5089 016b 57       		.byte	0x57
 5090 016c 00000000 		.4byte	0
ARM GAS  C:\Users\Shaunak\AppData\Local\Temp\ccVo5zvX.s 			page 103


 5091 0170 00000000 		.4byte	0
 5092              	.LLST9:
 5093 0174 5E000000 		.4byte	.LVL20
 5094 0178 66000000 		.4byte	.LVL21
 5095 017c 0100     		.2byte	0x1
 5096 017e 53       		.byte	0x53
 5097 017f 66000000 		.4byte	.LVL21
 5098 0183 8C000000 		.4byte	.LVL23
 5099 0187 0100     		.2byte	0x1
 5100 0189 56       		.byte	0x56
 5101 018a 8C000000 		.4byte	.LVL23
 5102 018e 96000000 		.4byte	.LVL24
 5103 0192 0100     		.2byte	0x1
 5104 0194 53       		.byte	0x53
 5105 0195 96000000 		.4byte	.LVL24
 5106 0199 BA000000 		.4byte	.LVL26
 5107 019d 0100     		.2byte	0x1
 5108 019f 56       		.byte	0x56
 5109 01a0 BA000000 		.4byte	.LVL26
 5110 01a4 C6000000 		.4byte	.LVL29
 5111 01a8 0100     		.2byte	0x1
 5112 01aa 53       		.byte	0x53
 5113 01ab C6000000 		.4byte	.LVL29
 5114 01af CA000000 		.4byte	.LVL30
 5115 01b3 1200     		.2byte	0x12
 5116 01b5 75       		.byte	0x75
 5117 01b6 02       		.sleb128 2
 5118 01b7 94       		.byte	0x94
 5119 01b8 01       		.byte	0x1
 5120 01b9 08       		.byte	0x8
 5121 01ba FF       		.byte	0xff
 5122 01bb 1A       		.byte	0x1a
 5123 01bc 38       		.byte	0x38
 5124 01bd 24       		.byte	0x24
 5125 01be 75       		.byte	0x75
 5126 01bf 03       		.sleb128 3
 5127 01c0 94       		.byte	0x94
 5128 01c1 01       		.byte	0x1
 5129 01c2 08       		.byte	0x8
 5130 01c3 FF       		.byte	0xff
 5131 01c4 1A       		.byte	0x1a
 5132 01c5 21       		.byte	0x21
 5133 01c6 9F       		.byte	0x9f
 5134 01c7 00000000 		.4byte	0
 5135 01cb 00000000 		.4byte	0
 5136              	.LLST10:
 5137 01cf BE000000 		.4byte	.LVL27
 5138 01d3 AB010000 		.4byte	.LVL49-1
 5139 01d7 0100     		.2byte	0x1
 5140 01d9 5E       		.byte	0x5e
 5141 01da 00000000 		.4byte	0
 5142 01de 00000000 		.4byte	0
 5143              	.LLST11:
 5144 01e2 C2000000 		.4byte	.LVL28
 5145 01e6 4C010000 		.4byte	.LVL42
 5146 01ea 0100     		.2byte	0x1
 5147 01ec 56       		.byte	0x56
ARM GAS  C:\Users\Shaunak\AppData\Local\Temp\ccVo5zvX.s 			page 104


 5148 01ed 76010000 		.4byte	.LVL45
 5149 01f1 9C010000 		.4byte	.LVL48
 5150 01f5 0100     		.2byte	0x1
 5151 01f7 56       		.byte	0x56
 5152 01f8 00000000 		.4byte	0
 5153 01fc 00000000 		.4byte	0
 5154              	.LLST12:
 5155 0200 C6000000 		.4byte	.LVL29
 5156 0204 DE000000 		.4byte	.LVL33
 5157 0208 0100     		.2byte	0x1
 5158 020a 53       		.byte	0x53
 5159 020b F0000000 		.4byte	.LVL34
 5160 020f 20010000 		.4byte	.LVL38
 5161 0213 0100     		.2byte	0x1
 5162 0215 53       		.byte	0x53
 5163 0216 3C010000 		.4byte	.LVL39
 5164 021a 46010000 		.4byte	.LVL41
 5165 021e 0100     		.2byte	0x1
 5166 0220 53       		.byte	0x53
 5167 0221 76010000 		.4byte	.LVL45
 5168 0225 7A010000 		.4byte	.LVL46
 5169 0229 0100     		.2byte	0x1
 5170 022b 53       		.byte	0x53
 5171 022c 00000000 		.4byte	0
 5172 0230 00000000 		.4byte	0
 5173              	.LLST13:
 5174 0234 CE000000 		.4byte	.LVL31
 5175 0238 D2000000 		.4byte	.LVL32
 5176 023c 0200     		.2byte	0x2
 5177 023e 30       		.byte	0x30
 5178 023f 9F       		.byte	0x9f
 5179 0240 D2000000 		.4byte	.LVL32
 5180 0244 F2000000 		.4byte	.LVL35
 5181 0248 0100     		.2byte	0x1
 5182 024a 54       		.byte	0x54
 5183 024b F4000000 		.4byte	.LVL36
 5184 024f 18010000 		.4byte	.LVL37
 5185 0253 0100     		.2byte	0x1
 5186 0255 54       		.byte	0x54
 5187 0256 3C010000 		.4byte	.LVL39
 5188 025a 3E010000 		.4byte	.LVL40
 5189 025e 0100     		.2byte	0x1
 5190 0260 54       		.byte	0x54
 5191 0261 76010000 		.4byte	.LVL45
 5192 0265 9C010000 		.4byte	.LVL48
 5193 0269 0100     		.2byte	0x1
 5194 026b 54       		.byte	0x54
 5195 026c 00000000 		.4byte	0
 5196 0270 00000000 		.4byte	0
 5197              	.LLST14:
 5198 0274 00000000 		.4byte	.LVL50
 5199 0278 0E000000 		.4byte	.LVL51
 5200 027c 0100     		.2byte	0x1
 5201 027e 50       		.byte	0x50
 5202 027f 0E000000 		.4byte	.LVL51
 5203 0283 D2000000 		.4byte	.LVL65
 5204 0287 0100     		.2byte	0x1
ARM GAS  C:\Users\Shaunak\AppData\Local\Temp\ccVo5zvX.s 			page 105


 5205 0289 55       		.byte	0x55
 5206 028a D2000000 		.4byte	.LVL65
 5207 028e AC010000 		.4byte	.LFE3
 5208 0292 0400     		.2byte	0x4
 5209 0294 F3       		.byte	0xf3
 5210 0295 01       		.uleb128 0x1
 5211 0296 50       		.byte	0x50
 5212 0297 9F       		.byte	0x9f
 5213 0298 00000000 		.4byte	0
 5214 029c 00000000 		.4byte	0
 5215              	.LLST15:
 5216 02a0 00000000 		.4byte	.LVL50
 5217 02a4 10000000 		.4byte	.LVL52
 5218 02a8 0100     		.2byte	0x1
 5219 02aa 51       		.byte	0x51
 5220 02ab 10000000 		.4byte	.LVL52
 5221 02af AC010000 		.4byte	.LFE3
 5222 02b3 0400     		.2byte	0x4
 5223 02b5 F3       		.byte	0xf3
 5224 02b6 01       		.uleb128 0x1
 5225 02b7 51       		.byte	0x51
 5226 02b8 9F       		.byte	0x9f
 5227 02b9 00000000 		.4byte	0
 5228 02bd 00000000 		.4byte	0
 5229              	.LLST16:
 5230 02c1 4C000000 		.4byte	.LVL54
 5231 02c5 1A010000 		.4byte	.LVL71
 5232 02c9 0100     		.2byte	0x1
 5233 02cb 56       		.byte	0x56
 5234 02cc 1A010000 		.4byte	.LVL71
 5235 02d0 56010000 		.4byte	.LVL76
 5236 02d4 0100     		.2byte	0x1
 5237 02d6 57       		.byte	0x57
 5238 02d7 56010000 		.4byte	.LVL76
 5239 02db 6C010000 		.4byte	.LVL77
 5240 02df 0100     		.2byte	0x1
 5241 02e1 56       		.byte	0x56
 5242 02e2 6C010000 		.4byte	.LVL77
 5243 02e6 8A010000 		.4byte	.LVL79
 5244 02ea 0100     		.2byte	0x1
 5245 02ec 57       		.byte	0x57
 5246 02ed 00000000 		.4byte	0
 5247 02f1 00000000 		.4byte	0
 5248              	.LLST17:
 5249 02f5 5A000000 		.4byte	.LVL55
 5250 02f9 7D000000 		.4byte	.LVL56-1
 5251 02fd 0100     		.2byte	0x1
 5252 02ff 5E       		.byte	0x5e
 5253 0300 8A000000 		.4byte	.LVL57
 5254 0304 AF000000 		.4byte	.LVL58-1
 5255 0308 0100     		.2byte	0x1
 5256 030a 5E       		.byte	0x5e
 5257 030b BC000000 		.4byte	.LVL59
 5258 030f C8000000 		.4byte	.LVL62
 5259 0313 0100     		.2byte	0x1
 5260 0315 5E       		.byte	0x5e
 5261 0316 C8000000 		.4byte	.LVL62
ARM GAS  C:\Users\Shaunak\AppData\Local\Temp\ccVo5zvX.s 			page 106


 5262 031a CC000000 		.4byte	.LVL63
 5263 031e 1200     		.2byte	0x12
 5264 0320 75       		.byte	0x75
 5265 0321 02       		.sleb128 2
 5266 0322 94       		.byte	0x94
 5267 0323 01       		.byte	0x1
 5268 0324 08       		.byte	0x8
 5269 0325 FF       		.byte	0xff
 5270 0326 1A       		.byte	0x1a
 5271 0327 38       		.byte	0x38
 5272 0328 24       		.byte	0x24
 5273 0329 75       		.byte	0x75
 5274 032a 03       		.sleb128 3
 5275 032b 94       		.byte	0x94
 5276 032c 01       		.byte	0x1
 5277 032d 08       		.byte	0x8
 5278 032e FF       		.byte	0xff
 5279 032f 1A       		.byte	0x1a
 5280 0330 21       		.byte	0x21
 5281 0331 9F       		.byte	0x9f
 5282 0332 00000000 		.4byte	0
 5283 0336 00000000 		.4byte	0
 5284              	.LLST18:
 5285 033a C0000000 		.4byte	.LVL60
 5286 033e 24010000 		.4byte	.LVL72
 5287 0342 0100     		.2byte	0x1
 5288 0344 50       		.byte	0x50
 5289 0345 24010000 		.4byte	.LVL72
 5290 0349 44010000 		.4byte	.LVL75
 5291 034d 0100     		.2byte	0x1
 5292 034f 51       		.byte	0x51
 5293 0350 56010000 		.4byte	.LVL76
 5294 0354 6C010000 		.4byte	.LVL77
 5295 0358 0100     		.2byte	0x1
 5296 035a 50       		.byte	0x50
 5297 035b 00000000 		.4byte	0
 5298 035f 00000000 		.4byte	0
 5299              	.LLST19:
 5300 0363 C4000000 		.4byte	.LVL61
 5301 0367 3C010000 		.4byte	.LVL74
 5302 036b 0100     		.2byte	0x1
 5303 036d 54       		.byte	0x54
 5304 036e 56010000 		.4byte	.LVL76
 5305 0372 6C010000 		.4byte	.LVL77
 5306 0376 0100     		.2byte	0x1
 5307 0378 54       		.byte	0x54
 5308 0379 00000000 		.4byte	0
 5309 037d 00000000 		.4byte	0
 5310              	.LLST20:
 5311 0381 C8000000 		.4byte	.LVL62
 5312 0385 E6000000 		.4byte	.LVL67
 5313 0389 0100     		.2byte	0x1
 5314 038b 5E       		.byte	0x5e
 5315 038c FE000000 		.4byte	.LVL68
 5316 0390 7B010000 		.4byte	.LVL78-1
 5317 0394 0100     		.2byte	0x1
 5318 0396 5E       		.byte	0x5e
ARM GAS  C:\Users\Shaunak\AppData\Local\Temp\ccVo5zvX.s 			page 107


 5319 0397 00000000 		.4byte	0
 5320 039b 00000000 		.4byte	0
 5321              	.LLST21:
 5322 039f D0000000 		.4byte	.LVL64
 5323 03a3 D4000000 		.4byte	.LVL66
 5324 03a7 0200     		.2byte	0x2
 5325 03a9 30       		.byte	0x30
 5326 03aa 9F       		.byte	0x9f
 5327 03ab D4000000 		.4byte	.LVL66
 5328 03af 00010000 		.4byte	.LVL69
 5329 03b3 0100     		.2byte	0x1
 5330 03b5 55       		.byte	0x55
 5331 03b6 02010000 		.4byte	.LVL70
 5332 03ba 26010000 		.4byte	.LVL73
 5333 03be 0100     		.2byte	0x1
 5334 03c0 55       		.byte	0x55
 5335 03c1 56010000 		.4byte	.LVL76
 5336 03c5 6C010000 		.4byte	.LVL77
 5337 03c9 0100     		.2byte	0x1
 5338 03cb 55       		.byte	0x55
 5339 03cc 00000000 		.4byte	0
 5340 03d0 00000000 		.4byte	0
 5341              	.LLST22:
 5342 03d4 00000000 		.4byte	.LVL80
 5343 03d8 0F000000 		.4byte	.LVL82-1
 5344 03dc 0100     		.2byte	0x1
 5345 03de 50       		.byte	0x50
 5346 03df 0F000000 		.4byte	.LVL82-1
 5347 03e3 2A010000 		.4byte	.LVL107
 5348 03e7 0100     		.2byte	0x1
 5349 03e9 55       		.byte	0x55
 5350 03ea 2A010000 		.4byte	.LVL107
 5351 03ee 44010000 		.4byte	.LFE4
 5352 03f2 0400     		.2byte	0x4
 5353 03f4 F3       		.byte	0xf3
 5354 03f5 01       		.uleb128 0x1
 5355 03f6 50       		.byte	0x50
 5356 03f7 9F       		.byte	0x9f
 5357 03f8 00000000 		.4byte	0
 5358 03fc 00000000 		.4byte	0
 5359              	.LLST23:
 5360 0400 00000000 		.4byte	.LVL80
 5361 0404 0A000000 		.4byte	.LVL81
 5362 0408 0100     		.2byte	0x1
 5363 040a 51       		.byte	0x51
 5364 040b 0A000000 		.4byte	.LVL81
 5365 040f 44010000 		.4byte	.LFE4
 5366 0413 0400     		.2byte	0x4
 5367 0415 F3       		.byte	0xf3
 5368 0416 01       		.uleb128 0x1
 5369 0417 51       		.byte	0x51
 5370 0418 9F       		.byte	0x9f
 5371 0419 00000000 		.4byte	0
 5372 041d 00000000 		.4byte	0
 5373              	.LLST24:
 5374 0421 3C000000 		.4byte	.LVL83
 5375 0425 60000000 		.4byte	.LVL87
ARM GAS  C:\Users\Shaunak\AppData\Local\Temp\ccVo5zvX.s 			page 108


 5376 0429 0100     		.2byte	0x1
 5377 042b 51       		.byte	0x51
 5378 042c 72000000 		.4byte	.LVL89
 5379 0430 8E000000 		.4byte	.LVL92
 5380 0434 0100     		.2byte	0x1
 5381 0436 51       		.byte	0x51
 5382 0437 A2000000 		.4byte	.LVL94
 5383 043b B6000000 		.4byte	.LVL97
 5384 043f 0100     		.2byte	0x1
 5385 0441 51       		.byte	0x51
 5386 0442 B6000000 		.4byte	.LVL97
 5387 0446 E2000000 		.4byte	.LVL100
 5388 044a 1200     		.2byte	0x12
 5389 044c 75       		.byte	0x75
 5390 044d 02       		.sleb128 2
 5391 044e 94       		.byte	0x94
 5392 044f 01       		.byte	0x1
 5393 0450 08       		.byte	0x8
 5394 0451 FF       		.byte	0xff
 5395 0452 1A       		.byte	0x1a
 5396 0453 38       		.byte	0x38
 5397 0454 24       		.byte	0x24
 5398 0455 75       		.byte	0x75
 5399 0456 03       		.sleb128 3
 5400 0457 94       		.byte	0x94
 5401 0458 01       		.byte	0x1
 5402 0459 08       		.byte	0x8
 5403 045a FF       		.byte	0xff
 5404 045b 1A       		.byte	0x1a
 5405 045c 21       		.byte	0x21
 5406 045d 9F       		.byte	0x9f
 5407 045e E4000000 		.4byte	.LVL101
 5408 0462 F4000000 		.4byte	.LVL104
 5409 0466 1200     		.2byte	0x12
 5410 0468 75       		.byte	0x75
 5411 0469 02       		.sleb128 2
 5412 046a 94       		.byte	0x94
 5413 046b 01       		.byte	0x1
 5414 046c 08       		.byte	0x8
 5415 046d FF       		.byte	0xff
 5416 046e 1A       		.byte	0x1a
 5417 046f 38       		.byte	0x38
 5418 0470 24       		.byte	0x24
 5419 0471 75       		.byte	0x75
 5420 0472 03       		.sleb128 3
 5421 0473 94       		.byte	0x94
 5422 0474 01       		.byte	0x1
 5423 0475 08       		.byte	0x8
 5424 0476 FF       		.byte	0xff
 5425 0477 1A       		.byte	0x1a
 5426 0478 21       		.byte	0x21
 5427 0479 9F       		.byte	0x9f
 5428 047a 00000000 		.4byte	0
 5429 047e 00000000 		.4byte	0
 5430              	.LLST25:
 5431 0482 44000000 		.4byte	.LVL84
 5432 0486 4A000000 		.4byte	.LVL85
ARM GAS  C:\Users\Shaunak\AppData\Local\Temp\ccVo5zvX.s 			page 109


 5433 048a 0100     		.2byte	0x1
 5434 048c 52       		.byte	0x52
 5435 048d 4A000000 		.4byte	.LVL85
 5436 0491 54000000 		.4byte	.LVL86
 5437 0495 0D00     		.2byte	0xd
 5438 0497 70       		.byte	0x70
 5439 0498 00       		.sleb128 0
 5440 0499 38       		.byte	0x38
 5441 049a 24       		.byte	0x24
 5442 049b 75       		.byte	0x75
 5443 049c 05       		.sleb128 5
 5444 049d 94       		.byte	0x94
 5445 049e 01       		.byte	0x1
 5446 049f 08       		.byte	0x8
 5447 04a0 FF       		.byte	0xff
 5448 04a1 1A       		.byte	0x1a
 5449 04a2 21       		.byte	0x21
 5450 04a3 9F       		.byte	0x9f
 5451 04a4 72000000 		.4byte	.LVL89
 5452 04a8 7C000000 		.4byte	.LVL90
 5453 04ac 0100     		.2byte	0x1
 5454 04ae 52       		.byte	0x52
 5455 04af 7C000000 		.4byte	.LVL90
 5456 04b3 86000000 		.4byte	.LVL91
 5457 04b7 0D00     		.2byte	0xd
 5458 04b9 70       		.byte	0x70
 5459 04ba 00       		.sleb128 0
 5460 04bb 38       		.byte	0x38
 5461 04bc 24       		.byte	0x24
 5462 04bd 75       		.byte	0x75
 5463 04be 05       		.sleb128 5
 5464 04bf 94       		.byte	0x94
 5465 04c0 01       		.byte	0x1
 5466 04c1 08       		.byte	0x8
 5467 04c2 FF       		.byte	0xff
 5468 04c3 1A       		.byte	0x1a
 5469 04c4 21       		.byte	0x21
 5470 04c5 9F       		.byte	0x9f
 5471 04c6 A2000000 		.4byte	.LVL94
 5472 04ca D0000000 		.4byte	.LVL98
 5473 04ce 0100     		.2byte	0x1
 5474 04d0 52       		.byte	0x52
 5475 04d1 D0000000 		.4byte	.LVL98
 5476 04d5 E2000000 		.4byte	.LVL100
 5477 04d9 1200     		.2byte	0x12
 5478 04db 75       		.byte	0x75
 5479 04dc 04       		.sleb128 4
 5480 04dd 94       		.byte	0x94
 5481 04de 01       		.byte	0x1
 5482 04df 08       		.byte	0x8
 5483 04e0 FF       		.byte	0xff
 5484 04e1 1A       		.byte	0x1a
 5485 04e2 38       		.byte	0x38
 5486 04e3 24       		.byte	0x24
 5487 04e4 75       		.byte	0x75
 5488 04e5 05       		.sleb128 5
 5489 04e6 94       		.byte	0x94
ARM GAS  C:\Users\Shaunak\AppData\Local\Temp\ccVo5zvX.s 			page 110


 5490 04e7 01       		.byte	0x1
 5491 04e8 08       		.byte	0x8
 5492 04e9 FF       		.byte	0xff
 5493 04ea 1A       		.byte	0x1a
 5494 04eb 21       		.byte	0x21
 5495 04ec 9F       		.byte	0x9f
 5496 04ed E4000000 		.4byte	.LVL101
 5497 04f1 E6000000 		.4byte	.LVL102
 5498 04f5 0100     		.2byte	0x1
 5499 04f7 52       		.byte	0x52
 5500 04f8 E6000000 		.4byte	.LVL102
 5501 04fc F4000000 		.4byte	.LVL104
 5502 0500 1200     		.2byte	0x12
 5503 0502 75       		.byte	0x75
 5504 0503 04       		.sleb128 4
 5505 0504 94       		.byte	0x94
 5506 0505 01       		.byte	0x1
 5507 0506 08       		.byte	0x8
 5508 0507 FF       		.byte	0xff
 5509 0508 1A       		.byte	0x1a
 5510 0509 38       		.byte	0x38
 5511 050a 24       		.byte	0x24
 5512 050b 75       		.byte	0x75
 5513 050c 05       		.sleb128 5
 5514 050d 94       		.byte	0x94
 5515 050e 01       		.byte	0x1
 5516 050f 08       		.byte	0x8
 5517 0510 FF       		.byte	0xff
 5518 0511 1A       		.byte	0x1a
 5519 0512 21       		.byte	0x21
 5520 0513 9F       		.byte	0x9f
 5521 0514 00000000 		.4byte	0
 5522 0518 00000000 		.4byte	0
 5523              	.LLST26:
 5524 051c A6000000 		.4byte	.LVL95
 5525 0520 D2000000 		.4byte	.LVL99
 5526 0524 0100     		.2byte	0x1
 5527 0526 53       		.byte	0x53
 5528 0527 D2000000 		.4byte	.LVL99
 5529 052b E2000000 		.4byte	.LVL100
 5530 052f 1400     		.2byte	0x14
 5531 0531 75       		.byte	0x75
 5532 0532 02       		.sleb128 2
 5533 0533 94       		.byte	0x94
 5534 0534 01       		.byte	0x1
 5535 0535 08       		.byte	0x8
 5536 0536 FF       		.byte	0xff
 5537 0537 1A       		.byte	0x1a
 5538 0538 38       		.byte	0x38
 5539 0539 24       		.byte	0x24
 5540 053a 75       		.byte	0x75
 5541 053b 03       		.sleb128 3
 5542 053c 94       		.byte	0x94
 5543 053d 01       		.byte	0x1
 5544 053e 08       		.byte	0x8
 5545 053f FF       		.byte	0xff
 5546 0540 1A       		.byte	0x1a
ARM GAS  C:\Users\Shaunak\AppData\Local\Temp\ccVo5zvX.s 			page 111


 5547 0541 21       		.byte	0x21
 5548 0542 37       		.byte	0x37
 5549 0543 1A       		.byte	0x1a
 5550 0544 9F       		.byte	0x9f
 5551 0545 E4000000 		.4byte	.LVL101
 5552 0549 EC000000 		.4byte	.LVL103
 5553 054d 0100     		.2byte	0x1
 5554 054f 53       		.byte	0x53
 5555 0550 EC000000 		.4byte	.LVL103
 5556 0554 F4000000 		.4byte	.LVL104
 5557 0558 1400     		.2byte	0x14
 5558 055a 75       		.byte	0x75
 5559 055b 02       		.sleb128 2
 5560 055c 94       		.byte	0x94
 5561 055d 01       		.byte	0x1
 5562 055e 08       		.byte	0x8
 5563 055f FF       		.byte	0xff
 5564 0560 1A       		.byte	0x1a
 5565 0561 38       		.byte	0x38
 5566 0562 24       		.byte	0x24
 5567 0563 75       		.byte	0x75
 5568 0564 03       		.sleb128 3
 5569 0565 94       		.byte	0x94
 5570 0566 01       		.byte	0x1
 5571 0567 08       		.byte	0x8
 5572 0568 FF       		.byte	0xff
 5573 0569 1A       		.byte	0x1a
 5574 056a 21       		.byte	0x21
 5575 056b 37       		.byte	0x37
 5576 056c 1A       		.byte	0x1a
 5577 056d 9F       		.byte	0x9f
 5578 056e 00000000 		.4byte	0
 5579 0572 00000000 		.4byte	0
 5580              	.LLST27:
 5581 0576 AA000000 		.4byte	.LVL96
 5582 057a 26010000 		.4byte	.LVL106
 5583 057e 0100     		.2byte	0x1
 5584 0580 57       		.byte	0x57
 5585 0581 00000000 		.4byte	0
 5586 0585 00000000 		.4byte	0
 5587              	.LLST28:
 5588 0589 00000000 		.4byte	.LVL108
 5589 058d 11000000 		.4byte	.LVL110-1
 5590 0591 0100     		.2byte	0x1
 5591 0593 50       		.byte	0x50
 5592 0594 11000000 		.4byte	.LVL110-1
 5593 0598 68040000 		.4byte	.LVL197
 5594 059c 0100     		.2byte	0x1
 5595 059e 54       		.byte	0x54
 5596 059f 68040000 		.4byte	.LVL197
 5597 05a3 90040000 		.4byte	.LFE5
 5598 05a7 0400     		.2byte	0x4
 5599 05a9 F3       		.byte	0xf3
 5600 05aa 01       		.uleb128 0x1
 5601 05ab 50       		.byte	0x50
 5602 05ac 9F       		.byte	0x9f
 5603 05ad 00000000 		.4byte	0
ARM GAS  C:\Users\Shaunak\AppData\Local\Temp\ccVo5zvX.s 			page 112


 5604 05b1 00000000 		.4byte	0
 5605              	.LLST29:
 5606 05b5 00000000 		.4byte	.LVL108
 5607 05b9 0C000000 		.4byte	.LVL109
 5608 05bd 0100     		.2byte	0x1
 5609 05bf 51       		.byte	0x51
 5610 05c0 0C000000 		.4byte	.LVL109
 5611 05c4 90040000 		.4byte	.LFE5
 5612 05c8 0400     		.2byte	0x4
 5613 05ca F3       		.byte	0xf3
 5614 05cb 01       		.uleb128 0x1
 5615 05cc 51       		.byte	0x51
 5616 05cd 9F       		.byte	0x9f
 5617 05ce 00000000 		.4byte	0
 5618 05d2 00000000 		.4byte	0
 5619              	.LLST30:
 5620 05d6 3A000000 		.4byte	.LVL111
 5621 05da 28010000 		.4byte	.LVL140
 5622 05de 0100     		.2byte	0x1
 5623 05e0 57       		.byte	0x57
 5624 05e1 52010000 		.4byte	.LVL143
 5625 05e5 6E010000 		.4byte	.LVL144
 5626 05e9 0100     		.2byte	0x1
 5627 05eb 57       		.byte	0x57
 5628 05ec A6020000 		.4byte	.LVL162
 5629 05f0 A8020000 		.4byte	.LVL163
 5630 05f4 0100     		.2byte	0x1
 5631 05f6 57       		.byte	0x57
 5632 05f7 B8020000 		.4byte	.LVL165
 5633 05fb C0020000 		.4byte	.LVL166
 5634 05ff 0100     		.2byte	0x1
 5635 0601 57       		.byte	0x57
 5636 0602 88030000 		.4byte	.LVL177
 5637 0606 8E030000 		.4byte	.LVL178
 5638 060a 0100     		.2byte	0x1
 5639 060c 57       		.byte	0x57
 5640 060d 98030000 		.4byte	.LVL179
 5641 0611 A6030000 		.4byte	.LVL180
 5642 0615 0100     		.2byte	0x1
 5643 0617 57       		.byte	0x57
 5644 0618 46040000 		.4byte	.LVL191
 5645 061c 48040000 		.4byte	.LVL192
 5646 0620 0100     		.2byte	0x1
 5647 0622 57       		.byte	0x57
 5648 0623 00000000 		.4byte	0
 5649 0627 00000000 		.4byte	0
 5650              	.LLST31:
 5651 062b 46000000 		.4byte	.LVL112
 5652 062f 54000000 		.4byte	.LVL113
 5653 0633 0100     		.2byte	0x1
 5654 0635 55       		.byte	0x55
 5655 0636 54000000 		.4byte	.LVL113
 5656 063a 74000000 		.4byte	.LVL115
 5657 063e 0100     		.2byte	0x1
 5658 0640 56       		.byte	0x56
 5659 0641 74000000 		.4byte	.LVL115
 5660 0645 84000000 		.4byte	.LVL116
ARM GAS  C:\Users\Shaunak\AppData\Local\Temp\ccVo5zvX.s 			page 113


 5661 0649 0100     		.2byte	0x1
 5662 064b 55       		.byte	0x55
 5663 064c 84000000 		.4byte	.LVL116
 5664 0650 A2000000 		.4byte	.LVL118
 5665 0654 0100     		.2byte	0x1
 5666 0656 56       		.byte	0x56
 5667 0657 A2000000 		.4byte	.LVL118
 5668 065b AA000000 		.4byte	.LVL120
 5669 065f 0100     		.2byte	0x1
 5670 0661 55       		.byte	0x55
 5671 0662 AA000000 		.4byte	.LVL120
 5672 0666 D2000000 		.4byte	.LVL122
 5673 066a 0100     		.2byte	0x1
 5674 066c 56       		.byte	0x56
 5675 066d 00000000 		.4byte	0
 5676 0671 00000000 		.4byte	0
 5677              	.LLST32:
 5678 0675 A6000000 		.4byte	.LVL119
 5679 0679 6E010000 		.4byte	.LVL144
 5680 067d 0100     		.2byte	0x1
 5681 067f 5B       		.byte	0x5b
 5682 0680 6E010000 		.4byte	.LVL144
 5683 0684 B0010000 		.4byte	.LVL147
 5684 0688 0300     		.2byte	0x3
 5685 068a 91       		.byte	0x91
 5686 068b B87F     		.sleb128 -72
 5687 068d B4010000 		.4byte	.LVL148
 5688 0691 A6020000 		.4byte	.LVL162
 5689 0695 0300     		.2byte	0x3
 5690 0697 91       		.byte	0x91
 5691 0698 B87F     		.sleb128 -72
 5692 069a A6020000 		.4byte	.LVL162
 5693 069e AE020000 		.4byte	.LVL164
 5694 06a2 0100     		.2byte	0x1
 5695 06a4 5B       		.byte	0x5b
 5696 06a5 AE020000 		.4byte	.LVL164
 5697 06a9 B8020000 		.4byte	.LVL165
 5698 06ad 0300     		.2byte	0x3
 5699 06af 91       		.byte	0x91
 5700 06b0 B87F     		.sleb128 -72
 5701 06b2 B8020000 		.4byte	.LVL165
 5702 06b6 C0020000 		.4byte	.LVL166
 5703 06ba 0100     		.2byte	0x1
 5704 06bc 5B       		.byte	0x5b
 5705 06bd C0020000 		.4byte	.LVL166
 5706 06c1 88030000 		.4byte	.LVL177
 5707 06c5 0300     		.2byte	0x3
 5708 06c7 91       		.byte	0x91
 5709 06c8 B47F     		.sleb128 -76
 5710 06ca 88030000 		.4byte	.LVL177
 5711 06ce 8E030000 		.4byte	.LVL178
 5712 06d2 0100     		.2byte	0x1
 5713 06d4 5B       		.byte	0x5b
 5714 06d5 8E030000 		.4byte	.LVL178
 5715 06d9 98030000 		.4byte	.LVL179
 5716 06dd 0300     		.2byte	0x3
 5717 06df 91       		.byte	0x91
ARM GAS  C:\Users\Shaunak\AppData\Local\Temp\ccVo5zvX.s 			page 114


 5718 06e0 B47F     		.sleb128 -76
 5719 06e2 98030000 		.4byte	.LVL179
 5720 06e6 A6030000 		.4byte	.LVL180
 5721 06ea 0100     		.2byte	0x1
 5722 06ec 5B       		.byte	0x5b
 5723 06ed 46040000 		.4byte	.LVL191
 5724 06f1 48040000 		.4byte	.LVL192
 5725 06f5 0100     		.2byte	0x1
 5726 06f7 5B       		.byte	0x5b
 5727 06f8 00000000 		.4byte	0
 5728 06fc 00000000 		.4byte	0
 5729              	.LLST33:
 5730 0700 A6000000 		.4byte	.LVL119
 5731 0704 D2000000 		.4byte	.LVL122
 5732 0708 0500     		.2byte	0x5
 5733 070a 76       		.byte	0x76
 5734 070b 00       		.sleb128 0
 5735 070c 37       		.byte	0x37
 5736 070d 1A       		.byte	0x1a
 5737 070e 9F       		.byte	0x9f
 5738 070f 00000000 		.4byte	0
 5739 0713 00000000 		.4byte	0
 5740              	.LLST34:
 5741 0717 AA000000 		.4byte	.LVL120
 5742 071b EA000000 		.4byte	.LVL125
 5743 071f 0100     		.2byte	0x1
 5744 0721 55       		.byte	0x55
 5745 0722 EC000000 		.4byte	.LVL126
 5746 0726 14010000 		.4byte	.LVL134
 5747 072a 0100     		.2byte	0x1
 5748 072c 55       		.byte	0x55
 5749 072d 16010000 		.4byte	.LVL135
 5750 0731 EA010000 		.4byte	.LVL150
 5751 0735 0100     		.2byte	0x1
 5752 0737 55       		.byte	0x55
 5753 0738 EC010000 		.4byte	.LVL151
 5754 073c 9E020000 		.4byte	.LVL158
 5755 0740 0100     		.2byte	0x1
 5756 0742 55       		.byte	0x55
 5757 0743 A0020000 		.4byte	.LVL159
 5758 0747 F8020000 		.4byte	.LVL168
 5759 074b 0100     		.2byte	0x1
 5760 074d 55       		.byte	0x55
 5761 074e FA020000 		.4byte	.LVL169
 5762 0752 80030000 		.4byte	.LVL173
 5763 0756 0100     		.2byte	0x1
 5764 0758 55       		.byte	0x55
 5765 0759 82030000 		.4byte	.LVL174
 5766 075d DA030000 		.4byte	.LVL182
 5767 0761 0100     		.2byte	0x1
 5768 0763 55       		.byte	0x55
 5769 0764 DC030000 		.4byte	.LVL183
 5770 0768 3E040000 		.4byte	.LVL187
 5771 076c 0100     		.2byte	0x1
 5772 076e 55       		.byte	0x55
 5773 076f 40040000 		.4byte	.LVL188
 5774 0773 7A040000 		.4byte	.LVL199
ARM GAS  C:\Users\Shaunak\AppData\Local\Temp\ccVo5zvX.s 			page 115


 5775 0777 0100     		.2byte	0x1
 5776 0779 55       		.byte	0x55
 5777 077a 00000000 		.4byte	0
 5778 077e 00000000 		.4byte	0
 5779              	.LLST35:
 5780 0782 CE000000 		.4byte	.LVL121
 5781 0786 DC000000 		.4byte	.LVL123
 5782 078a 0200     		.2byte	0x2
 5783 078c 30       		.byte	0x30
 5784 078d 9F       		.byte	0x9f
 5785 078e DC000000 		.4byte	.LVL123
 5786 0792 EE000000 		.4byte	.LVL127
 5787 0796 0100     		.2byte	0x1
 5788 0798 56       		.byte	0x56
 5789 0799 F0000000 		.4byte	.LVL128
 5790 079d F2000000 		.4byte	.LVL129
 5791 07a1 0100     		.2byte	0x1
 5792 07a3 56       		.byte	0x56
 5793 07a4 F2000000 		.4byte	.LVL129
 5794 07a8 F4000000 		.4byte	.LVL130
 5795 07ac 0200     		.2byte	0x2
 5796 07ae 30       		.byte	0x30
 5797 07af 9F       		.byte	0x9f
 5798 07b0 F4000000 		.4byte	.LVL130
 5799 07b4 FC000000 		.4byte	.LVL131
 5800 07b8 0100     		.2byte	0x1
 5801 07ba 56       		.byte	0x56
 5802 07bb FC000000 		.4byte	.LVL131
 5803 07bf 06010000 		.4byte	.LVL132
 5804 07c3 0200     		.2byte	0x2
 5805 07c5 30       		.byte	0x30
 5806 07c6 9F       		.byte	0x9f
 5807 07c7 06010000 		.4byte	.LVL132
 5808 07cb 18010000 		.4byte	.LVL136
 5809 07cf 0100     		.2byte	0x1
 5810 07d1 56       		.byte	0x56
 5811 07d2 1A010000 		.4byte	.LVL137
 5812 07d6 1C010000 		.4byte	.LVL138
 5813 07da 0100     		.2byte	0x1
 5814 07dc 56       		.byte	0x56
 5815 07dd 1C010000 		.4byte	.LVL138
 5816 07e1 1E010000 		.4byte	.LVL139
 5817 07e5 0200     		.2byte	0x2
 5818 07e7 30       		.byte	0x30
 5819 07e8 9F       		.byte	0x9f
 5820 07e9 1E010000 		.4byte	.LVL139
 5821 07ed 3E010000 		.4byte	.LVL141
 5822 07f1 0100     		.2byte	0x1
 5823 07f3 56       		.byte	0x56
 5824 07f4 52010000 		.4byte	.LVL143
 5825 07f8 6E010000 		.4byte	.LVL144
 5826 07fc 0200     		.2byte	0x2
 5827 07fe 30       		.byte	0x30
 5828 07ff 9F       		.byte	0x9f
 5829 0800 6E010000 		.4byte	.LVL144
 5830 0804 7C010000 		.4byte	.LVL145
 5831 0808 0100     		.2byte	0x1
ARM GAS  C:\Users\Shaunak\AppData\Local\Temp\ccVo5zvX.s 			page 116


 5832 080a 57       		.byte	0x57
 5833 080b B4010000 		.4byte	.LVL148
 5834 080f A2020000 		.4byte	.LVL160
 5835 0813 0100     		.2byte	0x1
 5836 0815 57       		.byte	0x57
 5837 0816 A4020000 		.4byte	.LVL161
 5838 081a A6020000 		.4byte	.LVL162
 5839 081e 0100     		.2byte	0x1
 5840 0820 57       		.byte	0x57
 5841 0821 A6020000 		.4byte	.LVL162
 5842 0825 AE020000 		.4byte	.LVL164
 5843 0829 0200     		.2byte	0x2
 5844 082b 30       		.byte	0x30
 5845 082c 9F       		.byte	0x9f
 5846 082d AE020000 		.4byte	.LVL164
 5847 0831 B8020000 		.4byte	.LVL165
 5848 0835 0100     		.2byte	0x1
 5849 0837 57       		.byte	0x57
 5850 0838 B8020000 		.4byte	.LVL165
 5851 083c C0020000 		.4byte	.LVL166
 5852 0840 0200     		.2byte	0x2
 5853 0842 30       		.byte	0x30
 5854 0843 9F       		.byte	0x9f
 5855 0844 C0020000 		.4byte	.LVL166
 5856 0848 84030000 		.4byte	.LVL175
 5857 084c 0100     		.2byte	0x1
 5858 084e 56       		.byte	0x56
 5859 084f 86030000 		.4byte	.LVL176
 5860 0853 88030000 		.4byte	.LVL177
 5861 0857 0100     		.2byte	0x1
 5862 0859 56       		.byte	0x56
 5863 085a 88030000 		.4byte	.LVL177
 5864 085e 8E030000 		.4byte	.LVL178
 5865 0862 0200     		.2byte	0x2
 5866 0864 30       		.byte	0x30
 5867 0865 9F       		.byte	0x9f
 5868 0866 8E030000 		.4byte	.LVL178
 5869 086a 98030000 		.4byte	.LVL179
 5870 086e 0100     		.2byte	0x1
 5871 0870 56       		.byte	0x56
 5872 0871 98030000 		.4byte	.LVL179
 5873 0875 A6030000 		.4byte	.LVL180
 5874 0879 0200     		.2byte	0x2
 5875 087b 30       		.byte	0x30
 5876 087c 9F       		.byte	0x9f
 5877 087d A6030000 		.4byte	.LVL180
 5878 0881 42040000 		.4byte	.LVL189
 5879 0885 0100     		.2byte	0x1
 5880 0887 57       		.byte	0x57
 5881 0888 44040000 		.4byte	.LVL190
 5882 088c 46040000 		.4byte	.LVL191
 5883 0890 0100     		.2byte	0x1
 5884 0892 57       		.byte	0x57
 5885 0893 46040000 		.4byte	.LVL191
 5886 0897 48040000 		.4byte	.LVL192
 5887 089b 0200     		.2byte	0x2
 5888 089d 30       		.byte	0x30
ARM GAS  C:\Users\Shaunak\AppData\Local\Temp\ccVo5zvX.s 			page 117


 5889 089e 9F       		.byte	0x9f
 5890 089f 48040000 		.4byte	.LVL192
 5891 08a3 52040000 		.4byte	.LVL193
 5892 08a7 0100     		.2byte	0x1
 5893 08a9 57       		.byte	0x57
 5894 08aa 00000000 		.4byte	0
 5895 08ae 00000000 		.4byte	0
 5896              	.LLST36:
 5897 08b2 52040000 		.4byte	.LVL193
 5898 08b6 5A040000 		.4byte	.LVL194
 5899 08ba 0100     		.2byte	0x1
 5900 08bc 53       		.byte	0x53
 5901 08bd 5C040000 		.4byte	.LVL195
 5902 08c1 64040000 		.4byte	.LVL196
 5903 08c5 0100     		.2byte	0x1
 5904 08c7 53       		.byte	0x53
 5905 08c8 00000000 		.4byte	0
 5906 08cc 00000000 		.4byte	0
 5907              	.LLST37:
 5908 08d0 00000000 		.4byte	.LVL200
 5909 08d4 0D000000 		.4byte	.LVL202-1
 5910 08d8 0100     		.2byte	0x1
 5911 08da 50       		.byte	0x50
 5912 08db 0D000000 		.4byte	.LVL202-1
 5913 08df B2000000 		.4byte	.LVL216
 5914 08e3 0100     		.2byte	0x1
 5915 08e5 55       		.byte	0x55
 5916 08e6 B2000000 		.4byte	.LVL216
 5917 08ea 28010000 		.4byte	.LFE6
 5918 08ee 0400     		.2byte	0x4
 5919 08f0 F3       		.byte	0xf3
 5920 08f1 01       		.uleb128 0x1
 5921 08f2 50       		.byte	0x50
 5922 08f3 9F       		.byte	0x9f
 5923 08f4 00000000 		.4byte	0
 5924 08f8 00000000 		.4byte	0
 5925              	.LLST38:
 5926 08fc 00000000 		.4byte	.LVL200
 5927 0900 08000000 		.4byte	.LVL201
 5928 0904 0100     		.2byte	0x1
 5929 0906 51       		.byte	0x51
 5930 0907 08000000 		.4byte	.LVL201
 5931 090b 28010000 		.4byte	.LFE6
 5932 090f 0400     		.2byte	0x4
 5933 0911 F3       		.byte	0xf3
 5934 0912 01       		.uleb128 0x1
 5935 0913 51       		.byte	0x51
 5936 0914 9F       		.byte	0x9f
 5937 0915 00000000 		.4byte	0
 5938 0919 00000000 		.4byte	0
 5939              	.LLST39:
 5940 091d 38000000 		.4byte	.LVL203
 5941 0921 4E000000 		.4byte	.LVL206
 5942 0925 0100     		.2byte	0x1
 5943 0927 54       		.byte	0x54
 5944 0928 4E000000 		.4byte	.LVL206
 5945 092c 5C000000 		.4byte	.LVL208
ARM GAS  C:\Users\Shaunak\AppData\Local\Temp\ccVo5zvX.s 			page 118


 5946 0930 0100     		.2byte	0x1
 5947 0932 51       		.byte	0x51
 5948 0933 6E000000 		.4byte	.LVL210
 5949 0937 82000000 		.4byte	.LVL212
 5950 093b 0100     		.2byte	0x1
 5951 093d 54       		.byte	0x54
 5952 093e 82000000 		.4byte	.LVL212
 5953 0942 A0000000 		.4byte	.LVL214
 5954 0946 0100     		.2byte	0x1
 5955 0948 56       		.byte	0x56
 5956 0949 A0000000 		.4byte	.LVL214
 5957 094d B2000000 		.4byte	.LVL216
 5958 0951 0100     		.2byte	0x1
 5959 0953 54       		.byte	0x54
 5960 0954 B2000000 		.4byte	.LVL216
 5961 0958 10010000 		.4byte	.LVL221
 5962 095c 0100     		.2byte	0x1
 5963 095e 56       		.byte	0x56
 5964 095f 00000000 		.4byte	0
 5965 0963 00000000 		.4byte	0
 5966              	.LLST40:
 5967 0967 40000000 		.4byte	.LVL204
 5968 096b 48000000 		.4byte	.LVL205
 5969 096f 0100     		.2byte	0x1
 5970 0971 53       		.byte	0x53
 5971 0972 48000000 		.4byte	.LVL205
 5972 0976 50000000 		.4byte	.LVL207
 5973 097a 0D00     		.2byte	0xd
 5974 097c 75       		.byte	0x75
 5975 097d 02       		.sleb128 2
 5976 097e 94       		.byte	0x94
 5977 097f 01       		.byte	0x1
 5978 0980 08       		.byte	0x8
 5979 0981 FF       		.byte	0xff
 5980 0982 1A       		.byte	0x1a
 5981 0983 38       		.byte	0x38
 5982 0984 24       		.byte	0x24
 5983 0985 70       		.byte	0x70
 5984 0986 00       		.sleb128 0
 5985 0987 21       		.byte	0x21
 5986 0988 9F       		.byte	0x9f
 5987 0989 6E000000 		.4byte	.LVL210
 5988 098d 74000000 		.4byte	.LVL211
 5989 0991 0100     		.2byte	0x1
 5990 0993 53       		.byte	0x53
 5991 0994 74000000 		.4byte	.LVL211
 5992 0998 10010000 		.4byte	.LVL221
 5993 099c 0100     		.2byte	0x1
 5994 099e 57       		.byte	0x57
 5995 099f 00000000 		.4byte	0
 5996 09a3 00000000 		.4byte	0
 5997              	.LLST41:
 5998 09a7 AE000000 		.4byte	.LVL215
 5999 09ab B2000000 		.4byte	.LVL216
 6000 09af 0200     		.2byte	0x2
 6001 09b1 30       		.byte	0x30
 6002 09b2 9F       		.byte	0x9f
ARM GAS  C:\Users\Shaunak\AppData\Local\Temp\ccVo5zvX.s 			page 119


 6003 09b3 B2000000 		.4byte	.LVL216
 6004 09b7 E4000000 		.4byte	.LVL217
 6005 09bb 0100     		.2byte	0x1
 6006 09bd 53       		.byte	0x53
 6007 09be E6000000 		.4byte	.LVL218
 6008 09c2 F4000000 		.4byte	.LVL219
 6009 09c6 0100     		.2byte	0x1
 6010 09c8 53       		.byte	0x53
 6011 09c9 00000000 		.4byte	0
 6012 09cd 00000000 		.4byte	0
 6013              	.LLST42:
 6014 09d1 00000000 		.4byte	.LVL222
 6015 09d5 0D000000 		.4byte	.LVL224-1
 6016 09d9 0100     		.2byte	0x1
 6017 09db 50       		.byte	0x50
 6018 09dc 0D000000 		.4byte	.LVL224-1
 6019 09e0 B2000000 		.4byte	.LVL238
 6020 09e4 0100     		.2byte	0x1
 6021 09e6 55       		.byte	0x55
 6022 09e7 B2000000 		.4byte	.LVL238
 6023 09eb 28010000 		.4byte	.LFE7
 6024 09ef 0400     		.2byte	0x4
 6025 09f1 F3       		.byte	0xf3
 6026 09f2 01       		.uleb128 0x1
 6027 09f3 50       		.byte	0x50
 6028 09f4 9F       		.byte	0x9f
 6029 09f5 00000000 		.4byte	0
 6030 09f9 00000000 		.4byte	0
 6031              	.LLST43:
 6032 09fd 00000000 		.4byte	.LVL222
 6033 0a01 08000000 		.4byte	.LVL223
 6034 0a05 0100     		.2byte	0x1
 6035 0a07 51       		.byte	0x51
 6036 0a08 08000000 		.4byte	.LVL223
 6037 0a0c 28010000 		.4byte	.LFE7
 6038 0a10 0400     		.2byte	0x4
 6039 0a12 F3       		.byte	0xf3
 6040 0a13 01       		.uleb128 0x1
 6041 0a14 51       		.byte	0x51
 6042 0a15 9F       		.byte	0x9f
 6043 0a16 00000000 		.4byte	0
 6044 0a1a 00000000 		.4byte	0
 6045              	.LLST44:
 6046 0a1e 38000000 		.4byte	.LVL225
 6047 0a22 4E000000 		.4byte	.LVL228
 6048 0a26 0100     		.2byte	0x1
 6049 0a28 54       		.byte	0x54
 6050 0a29 4E000000 		.4byte	.LVL228
 6051 0a2d 5C000000 		.4byte	.LVL230
 6052 0a31 0100     		.2byte	0x1
 6053 0a33 51       		.byte	0x51
 6054 0a34 6E000000 		.4byte	.LVL232
 6055 0a38 82000000 		.4byte	.LVL234
 6056 0a3c 0100     		.2byte	0x1
 6057 0a3e 54       		.byte	0x54
 6058 0a3f 82000000 		.4byte	.LVL234
 6059 0a43 A0000000 		.4byte	.LVL236
ARM GAS  C:\Users\Shaunak\AppData\Local\Temp\ccVo5zvX.s 			page 120


 6060 0a47 0100     		.2byte	0x1
 6061 0a49 56       		.byte	0x56
 6062 0a4a A0000000 		.4byte	.LVL236
 6063 0a4e B2000000 		.4byte	.LVL238
 6064 0a52 0100     		.2byte	0x1
 6065 0a54 54       		.byte	0x54
 6066 0a55 B2000000 		.4byte	.LVL238
 6067 0a59 10010000 		.4byte	.LVL243
 6068 0a5d 0100     		.2byte	0x1
 6069 0a5f 56       		.byte	0x56
 6070 0a60 00000000 		.4byte	0
 6071 0a64 00000000 		.4byte	0
 6072              	.LLST45:
 6073 0a68 40000000 		.4byte	.LVL226
 6074 0a6c 48000000 		.4byte	.LVL227
 6075 0a70 0100     		.2byte	0x1
 6076 0a72 53       		.byte	0x53
 6077 0a73 48000000 		.4byte	.LVL227
 6078 0a77 50000000 		.4byte	.LVL229
 6079 0a7b 0D00     		.2byte	0xd
 6080 0a7d 75       		.byte	0x75
 6081 0a7e 02       		.sleb128 2
 6082 0a7f 94       		.byte	0x94
 6083 0a80 01       		.byte	0x1
 6084 0a81 08       		.byte	0x8
 6085 0a82 FF       		.byte	0xff
 6086 0a83 1A       		.byte	0x1a
 6087 0a84 38       		.byte	0x38
 6088 0a85 24       		.byte	0x24
 6089 0a86 70       		.byte	0x70
 6090 0a87 00       		.sleb128 0
 6091 0a88 21       		.byte	0x21
 6092 0a89 9F       		.byte	0x9f
 6093 0a8a 6E000000 		.4byte	.LVL232
 6094 0a8e 74000000 		.4byte	.LVL233
 6095 0a92 0100     		.2byte	0x1
 6096 0a94 53       		.byte	0x53
 6097 0a95 74000000 		.4byte	.LVL233
 6098 0a99 10010000 		.4byte	.LVL243
 6099 0a9d 0100     		.2byte	0x1
 6100 0a9f 57       		.byte	0x57
 6101 0aa0 00000000 		.4byte	0
 6102 0aa4 00000000 		.4byte	0
 6103              	.LLST46:
 6104 0aa8 AE000000 		.4byte	.LVL237
 6105 0aac B2000000 		.4byte	.LVL238
 6106 0ab0 0200     		.2byte	0x2
 6107 0ab2 30       		.byte	0x30
 6108 0ab3 9F       		.byte	0x9f
 6109 0ab4 B2000000 		.4byte	.LVL238
 6110 0ab8 E4000000 		.4byte	.LVL239
 6111 0abc 0100     		.2byte	0x1
 6112 0abe 53       		.byte	0x53
 6113 0abf E6000000 		.4byte	.LVL240
 6114 0ac3 F4000000 		.4byte	.LVL241
 6115 0ac7 0100     		.2byte	0x1
 6116 0ac9 53       		.byte	0x53
ARM GAS  C:\Users\Shaunak\AppData\Local\Temp\ccVo5zvX.s 			page 121


 6117 0aca 00000000 		.4byte	0
 6118 0ace 00000000 		.4byte	0
 6119              	.LLST47:
 6120 0ad2 00000000 		.4byte	.LVL244
 6121 0ad6 0D000000 		.4byte	.LVL246-1
 6122 0ada 0100     		.2byte	0x1
 6123 0adc 50       		.byte	0x50
 6124 0add 0D000000 		.4byte	.LVL246-1
 6125 0ae1 A4000000 		.4byte	.LVL256
 6126 0ae5 0100     		.2byte	0x1
 6127 0ae7 55       		.byte	0x55
 6128 0ae8 A4000000 		.4byte	.LVL256
 6129 0aec B8000000 		.4byte	.LFE8
 6130 0af0 0400     		.2byte	0x4
 6131 0af2 F3       		.byte	0xf3
 6132 0af3 01       		.uleb128 0x1
 6133 0af4 50       		.byte	0x50
 6134 0af5 9F       		.byte	0x9f
 6135 0af6 00000000 		.4byte	0
 6136 0afa 00000000 		.4byte	0
 6137              	.LLST48:
 6138 0afe 00000000 		.4byte	.LVL244
 6139 0b02 08000000 		.4byte	.LVL245
 6140 0b06 0100     		.2byte	0x1
 6141 0b08 51       		.byte	0x51
 6142 0b09 08000000 		.4byte	.LVL245
 6143 0b0d B8000000 		.4byte	.LFE8
 6144 0b11 0400     		.2byte	0x4
 6145 0b13 F3       		.byte	0xf3
 6146 0b14 01       		.uleb128 0x1
 6147 0b15 51       		.byte	0x51
 6148 0b16 9F       		.byte	0x9f
 6149 0b17 00000000 		.4byte	0
 6150 0b1b 00000000 		.4byte	0
 6151              	.LLST49:
 6152 0b1f 34000000 		.4byte	.LVL247
 6153 0b23 3C000000 		.4byte	.LVL248
 6154 0b27 0100     		.2byte	0x1
 6155 0b29 53       		.byte	0x53
 6156 0b2a 3C000000 		.4byte	.LVL248
 6157 0b2e 44000000 		.4byte	.LVL249
 6158 0b32 1200     		.2byte	0x12
 6159 0b34 75       		.byte	0x75
 6160 0b35 02       		.sleb128 2
 6161 0b36 94       		.byte	0x94
 6162 0b37 01       		.byte	0x1
 6163 0b38 08       		.byte	0x8
 6164 0b39 FF       		.byte	0xff
 6165 0b3a 1A       		.byte	0x1a
 6166 0b3b 38       		.byte	0x38
 6167 0b3c 24       		.byte	0x24
 6168 0b3d 75       		.byte	0x75
 6169 0b3e 03       		.sleb128 3
 6170 0b3f 94       		.byte	0x94
 6171 0b40 01       		.byte	0x1
 6172 0b41 08       		.byte	0x8
 6173 0b42 FF       		.byte	0xff
ARM GAS  C:\Users\Shaunak\AppData\Local\Temp\ccVo5zvX.s 			page 122


 6174 0b43 1A       		.byte	0x1a
 6175 0b44 21       		.byte	0x21
 6176 0b45 9F       		.byte	0x9f
 6177 0b46 62000000 		.4byte	.LVL251
 6178 0b4a 72000000 		.4byte	.LVL253
 6179 0b4e 0100     		.2byte	0x1
 6180 0b50 53       		.byte	0x53
 6181 0b51 00000000 		.4byte	0
 6182 0b55 00000000 		.4byte	0
 6183              	.LLST50:
 6184 0b59 6A000000 		.4byte	.LVL252
 6185 0b5d 8C000000 		.4byte	.LVL254
 6186 0b61 0100     		.2byte	0x1
 6187 0b63 52       		.byte	0x52
 6188 0b64 00000000 		.4byte	0
 6189 0b68 00000000 		.4byte	0
 6190              	.LLST51:
 6191 0b6c 00000000 		.4byte	.LVL257
 6192 0b70 0D000000 		.4byte	.LVL259-1
 6193 0b74 0100     		.2byte	0x1
 6194 0b76 50       		.byte	0x50
 6195 0b77 0D000000 		.4byte	.LVL259-1
 6196 0b7b FA000000 		.4byte	.LVL280
 6197 0b7f 0100     		.2byte	0x1
 6198 0b81 55       		.byte	0x55
 6199 0b82 FA000000 		.4byte	.LVL280
 6200 0b86 10010000 		.4byte	.LFE9
 6201 0b8a 0400     		.2byte	0x4
 6202 0b8c F3       		.byte	0xf3
 6203 0b8d 01       		.uleb128 0x1
 6204 0b8e 50       		.byte	0x50
 6205 0b8f 9F       		.byte	0x9f
 6206 0b90 00000000 		.4byte	0
 6207 0b94 00000000 		.4byte	0
 6208              	.LLST52:
 6209 0b98 00000000 		.4byte	.LVL257
 6210 0b9c 08000000 		.4byte	.LVL258
 6211 0ba0 0100     		.2byte	0x1
 6212 0ba2 51       		.byte	0x51
 6213 0ba3 08000000 		.4byte	.LVL258
 6214 0ba7 10010000 		.4byte	.LFE9
 6215 0bab 0400     		.2byte	0x4
 6216 0bad F3       		.byte	0xf3
 6217 0bae 01       		.uleb128 0x1
 6218 0baf 51       		.byte	0x51
 6219 0bb0 9F       		.byte	0x9f
 6220 0bb1 00000000 		.4byte	0
 6221 0bb5 00000000 		.4byte	0
 6222              	.LLST53:
 6223 0bb9 34000000 		.4byte	.LVL260
 6224 0bbd 58000000 		.4byte	.LVL264
 6225 0bc1 0100     		.2byte	0x1
 6226 0bc3 51       		.byte	0x51
 6227 0bc4 6A000000 		.4byte	.LVL266
 6228 0bc8 88000000 		.4byte	.LVL268
 6229 0bcc 0100     		.2byte	0x1
 6230 0bce 51       		.byte	0x51
ARM GAS  C:\Users\Shaunak\AppData\Local\Temp\ccVo5zvX.s 			page 123


 6231 0bcf 88000000 		.4byte	.LVL268
 6232 0bd3 BE000000 		.4byte	.LVL274
 6233 0bd7 0100     		.2byte	0x1
 6234 0bd9 56       		.byte	0x56
 6235 0bda BE000000 		.4byte	.LVL274
 6236 0bde C0000000 		.4byte	.LVL275
 6237 0be2 0100     		.2byte	0x1
 6238 0be4 51       		.byte	0x51
 6239 0be5 C0000000 		.4byte	.LVL275
 6240 0be9 F8000000 		.4byte	.LVL279
 6241 0bed 0100     		.2byte	0x1
 6242 0bef 56       		.byte	0x56
 6243 0bf0 00000000 		.4byte	0
 6244 0bf4 00000000 		.4byte	0
 6245              	.LLST54:
 6246 0bf8 3C000000 		.4byte	.LVL261
 6247 0bfc 44000000 		.4byte	.LVL262
 6248 0c00 0100     		.2byte	0x1
 6249 0c02 53       		.byte	0x53
 6250 0c03 44000000 		.4byte	.LVL262
 6251 0c07 4C000000 		.4byte	.LVL263
 6252 0c0b 1200     		.2byte	0x12
 6253 0c0d 75       		.byte	0x75
 6254 0c0e 04       		.sleb128 4
 6255 0c0f 94       		.byte	0x94
 6256 0c10 01       		.byte	0x1
 6257 0c11 08       		.byte	0x8
 6258 0c12 FF       		.byte	0xff
 6259 0c13 1A       		.byte	0x1a
 6260 0c14 38       		.byte	0x38
 6261 0c15 24       		.byte	0x24
 6262 0c16 75       		.byte	0x75
 6263 0c17 05       		.sleb128 5
 6264 0c18 94       		.byte	0x94
 6265 0c19 01       		.byte	0x1
 6266 0c1a 08       		.byte	0x8
 6267 0c1b FF       		.byte	0xff
 6268 0c1c 1A       		.byte	0x1a
 6269 0c1d 21       		.byte	0x21
 6270 0c1e 9F       		.byte	0x9f
 6271 0c1f 6A000000 		.4byte	.LVL266
 6272 0c23 70000000 		.4byte	.LVL267
 6273 0c27 0100     		.2byte	0x1
 6274 0c29 53       		.byte	0x53
 6275 0c2a 70000000 		.4byte	.LVL267
 6276 0c2e 8C000000 		.4byte	.LVL269
 6277 0c32 0100     		.2byte	0x1
 6278 0c34 50       		.byte	0x50
 6279 0c35 9C000000 		.4byte	.LVL271
 6280 0c39 EA000000 		.4byte	.LVL277
 6281 0c3d 0100     		.2byte	0x1
 6282 0c3f 50       		.byte	0x50
 6283 0c40 00000000 		.4byte	0
 6284 0c44 00000000 		.4byte	0
 6285              	.LLST55:
 6286 0c48 9C000000 		.4byte	.LVL271
 6287 0c4c BA000000 		.4byte	.LVL272
ARM GAS  C:\Users\Shaunak\AppData\Local\Temp\ccVo5zvX.s 			page 124


 6288 0c50 0100     		.2byte	0x1
 6289 0c52 53       		.byte	0x53
 6290 0c53 BC000000 		.4byte	.LVL273
 6291 0c57 BE000000 		.4byte	.LVL274
 6292 0c5b 0100     		.2byte	0x1
 6293 0c5d 53       		.byte	0x53
 6294 0c5e C0000000 		.4byte	.LVL275
 6295 0c62 C8000000 		.4byte	.LVL276
 6296 0c66 0100     		.2byte	0x1
 6297 0c68 53       		.byte	0x53
 6298 0c69 00000000 		.4byte	0
 6299 0c6d 00000000 		.4byte	0
 6300              		.section	.debug_aranges,"",%progbits
 6301 0000 64000000 		.4byte	0x64
 6302 0004 0200     		.2byte	0x2
 6303 0006 00000000 		.4byte	.Ldebug_info0
 6304 000a 04       		.byte	0x4
 6305 000b 00       		.byte	0
 6306 000c 0000     		.2byte	0
 6307 000e 0000     		.2byte	0
 6308 0010 00000000 		.4byte	.LFB0
 6309 0014 30000000 		.4byte	.LFE0-.LFB0
 6310 0018 00000000 		.4byte	.LFB1
 6311 001c 4E000000 		.4byte	.LFE1-.LFB1
 6312 0020 00000000 		.4byte	.LFB2
 6313 0024 D4010000 		.4byte	.LFE2-.LFB2
 6314 0028 00000000 		.4byte	.LFB3
 6315 002c AC010000 		.4byte	.LFE3-.LFB3
 6316 0030 00000000 		.4byte	.LFB4
 6317 0034 44010000 		.4byte	.LFE4-.LFB4
 6318 0038 00000000 		.4byte	.LFB5
 6319 003c 90040000 		.4byte	.LFE5-.LFB5
 6320 0040 00000000 		.4byte	.LFB6
 6321 0044 28010000 		.4byte	.LFE6-.LFB6
 6322 0048 00000000 		.4byte	.LFB7
 6323 004c 28010000 		.4byte	.LFE7-.LFB7
 6324 0050 00000000 		.4byte	.LFB8
 6325 0054 B8000000 		.4byte	.LFE8-.LFB8
 6326 0058 00000000 		.4byte	.LFB9
 6327 005c 10010000 		.4byte	.LFE9-.LFB9
 6328 0060 00000000 		.4byte	0
 6329 0064 00000000 		.4byte	0
 6330              		.section	.debug_ranges,"",%progbits
 6331              	.Ldebug_ranges0:
 6332 0000 9C000000 		.4byte	.LBB17
 6333 0004 BE000000 		.4byte	.LBE17
 6334 0008 C0000000 		.4byte	.LBB18
 6335 000c 10010000 		.4byte	.LBE18
 6336 0010 00000000 		.4byte	0
 6337 0014 00000000 		.4byte	0
 6338 0018 00000000 		.4byte	.LFB0
 6339 001c 30000000 		.4byte	.LFE0
 6340 0020 00000000 		.4byte	.LFB1
 6341 0024 4E000000 		.4byte	.LFE1
 6342 0028 00000000 		.4byte	.LFB2
 6343 002c D4010000 		.4byte	.LFE2
 6344 0030 00000000 		.4byte	.LFB3
ARM GAS  C:\Users\Shaunak\AppData\Local\Temp\ccVo5zvX.s 			page 125


 6345 0034 AC010000 		.4byte	.LFE3
 6346 0038 00000000 		.4byte	.LFB4
 6347 003c 44010000 		.4byte	.LFE4
 6348 0040 00000000 		.4byte	.LFB5
 6349 0044 90040000 		.4byte	.LFE5
 6350 0048 00000000 		.4byte	.LFB6
 6351 004c 28010000 		.4byte	.LFE6
 6352 0050 00000000 		.4byte	.LFB7
 6353 0054 28010000 		.4byte	.LFE7
 6354 0058 00000000 		.4byte	.LFB8
 6355 005c B8000000 		.4byte	.LFE8
 6356 0060 00000000 		.4byte	.LFB9
 6357 0064 10010000 		.4byte	.LFE9
 6358 0068 00000000 		.4byte	0
 6359 006c 00000000 		.4byte	0
 6360              		.section	.debug_line,"",%progbits
 6361              	.Ldebug_line0:
 6362 0000 8B040000 		.section	.debug_str,"MS",%progbits,1
 6362      02002001 
 6362      00000201 
 6362      FB0E0D00 
 6362      01010101 
 6363              	.LASF24:
 6364 0000 6D6F6475 		.ascii	"modulo_coil_count_array\000"
 6364      6C6F5F63 
 6364      6F696C5F 
 6364      636F756E 
 6364      745F6172 
 6365              	.LASF77:
 6366 0018 6D6F6462 		.ascii	"modbus_response_read_input_registers\000"
 6366      75735F72 
 6366      6573706F 
 6366      6E73655F 
 6366      72656164 
 6367              	.LASF62:
 6368 003d 61756368 		.ascii	"auchCRCLo\000"
 6368      4352434C 
 6368      6F00
 6369              	.LASF82:
 6370 0047 6D6F6462 		.ascii	"modbus_response_holding_registers_temp\000"
 6370      75735F72 
 6370      6573706F 
 6370      6E73655F 
 6370      686F6C64 
 6371              	.LASF73:
 6372 006e 6D6F6462 		.ascii	"modbus_response_read_discrete_input\000"
 6372      75735F72 
 6372      6573706F 
 6372      6E73655F 
 6372      72656164 
 6373              	.LASF76:
 6374 0092 6D6F6462 		.ascii	"modbus_response_preset_multiple_registers\000"
 6374      75735F72 
 6374      6573706F 
 6374      6E73655F 
 6374      70726573 
 6375              	.LASF2:
ARM GAS  C:\Users\Shaunak\AppData\Local\Temp\ccVo5zvX.s 			page 126


 6376 00bc 73686F72 		.ascii	"short int\000"
 6376      7420696E 
 6376      7400
 6377              	.LASF81:
 6378 00c6 6D6F6462 		.ascii	"modbus_response_discrete_input_temp\000"
 6378      75735F72 
 6378      6573706F 
 6378      6E73655F 
 6378      64697363 
 6379              	.LASF21:
 6380 00ea 73697A65 		.ascii	"sizetype\000"
 6380      74797065 
 6380      00
 6381              	.LASF33:
 6382 00f3 64697363 		.ascii	"discrete_input_count\000"
 6382      72657465 
 6382      5F696E70 
 6382      75745F63 
 6382      6F756E74 
 6383              	.LASF84:
 6384 0108 63726331 		.ascii	"crc16\000"
 6384      3600
 6385              	.LASF29:
 6386 010e 62797465 		.ascii	"byte_index\000"
 6386      5F696E64 
 6386      657800
 6387              	.LASF44:
 6388 0119 7175616E 		.ascii	"quantity_of_coils\000"
 6388      74697479 
 6388      5F6F665F 
 6388      636F696C 
 6388      7300
 6389              	.LASF79:
 6390 012b 6D6F6462 		.ascii	"modbus_response_force_multiple_coils\000"
 6390      75735F72 
 6390      6573706F 
 6390      6E73655F 
 6390      666F7263 
 6391              	.LASF51:
 6392 0150 686F6C64 		.ascii	"holding_registers_start_address\000"
 6392      696E675F 
 6392      72656769 
 6392      73746572 
 6392      735F7374 
 6393              	.LASF37:
 6394 0170 636F696C 		.ascii	"coil_address\000"
 6394      5F616464 
 6394      72657373 
 6394      00
 6395              	.LASF4:
 6396 017d 5F5F7569 		.ascii	"__uint16_t\000"
 6396      6E743136 
 6396      5F7400
 6397              	.LASF19:
 6398 0188 72657665 		.ascii	"reverse_data\000"
 6398      7273655F 
 6398      64617461 
ARM GAS  C:\Users\Shaunak\AppData\Local\Temp\ccVo5zvX.s 			page 127


 6398      00
 6399              	.LASF40:
 6400 0195 636F696C 		.ascii	"coil_address_index\000"
 6400      5F616464 
 6400      72657373 
 6400      5F696E64 
 6400      657800
 6401              	.LASF45:
 6402 01a8 6D6F6475 		.ascii	"modulo_quantity_of_coils\000"
 6402      6C6F5F71 
 6402      75616E74 
 6402      6974795F 
 6402      6F665F63 
 6403              	.LASF60:
 6404 01c1 686F6C64 		.ascii	"holding_register_count\000"
 6404      696E675F 
 6404      72656769 
 6404      73746572 
 6404      5F636F75 
 6405              	.LASF68:
 6406 01d8 6D6F6462 		.ascii	"modbus_input_registers_value_H\000"
 6406      75735F69 
 6406      6E707574 
 6406      5F726567 
 6406      69737465 
 6407              	.LASF23:
 6408 01f7 6E756D62 		.ascii	"number_of_bytes\000"
 6408      65725F6F 
 6408      665F6279 
 6408      74657300 
 6409              	.LASF11:
 6410 0207 75696E74 		.ascii	"uint8_t\000"
 6410      385F7400 
 6411              	.LASF41:
 6412 020f 666F7263 		.ascii	"force_single_coil_array_for_zero_pad\000"
 6412      655F7369 
 6412      6E676C65 
 6412      5F636F69 
 6412      6C5F6172 
 6413              	.LASF66:
 6414 0234 6D6F6462 		.ascii	"modbus_holding_registers_value_L\000"
 6414      75735F68 
 6414      6F6C6469 
 6414      6E675F72 
 6414      65676973 
 6415              	.LASF35:
 6416 0255 6D6F6475 		.ascii	"modulo_discrete_input_count\000"
 6416      6C6F5F64 
 6416      69736372 
 6416      6574655F 
 6416      696E7075 
 6417              	.LASF25:
 6418 0271 636F696C 		.ascii	"coil_count\000"
 6418      5F636F75 
 6418      6E7400
 6419              	.LASF56:
 6420 027c 686F6C64 		.ascii	"holding_register_address\000"
ARM GAS  C:\Users\Shaunak\AppData\Local\Temp\ccVo5zvX.s 			page 128


 6420      696E675F 
 6420      72656769 
 6420      73746572 
 6420      5F616464 
 6421              	.LASF65:
 6422 0295 6D6F6462 		.ascii	"modbus_holding_registers_value_H\000"
 6422      75735F68 
 6422      6F6C6469 
 6422      6E675F72 
 6422      65676973 
 6423              	.LASF8:
 6424 02b6 6C6F6E67 		.ascii	"long long int\000"
 6424      206C6F6E 
 6424      6720696E 
 6424      7400
 6425              	.LASF36:
 6426 02c4 71756572 		.ascii	"query_response_force_single_coil\000"
 6426      795F7265 
 6426      73706F6E 
 6426      73655F66 
 6426      6F726365 
 6427              	.LASF13:
 6428 02e5 70756368 		.ascii	"puchMsg\000"
 6428      4D736700 
 6429              	.LASF64:
 6430 02ed 6D6F6462 		.ascii	"modbus_holding_registers_value\000"
 6430      75735F68 
 6430      6F6C6469 
 6430      6E675F72 
 6430      65676973 
 6431              	.LASF6:
 6432 030c 6C6F6E67 		.ascii	"long int\000"
 6432      20696E74 
 6432      00
 6433              	.LASF22:
 6434 0315 6D6F6462 		.ascii	"modbus_received_data\000"
 6434      75735F72 
 6434      65636569 
 6434      7665645F 
 6434      64617461 
 6435              	.LASF38:
 6436 032a 666F7263 		.ascii	"forced_coil_value\000"
 6436      65645F63 
 6436      6F696C5F 
 6436      76616C75 
 6436      6500
 6437              	.LASF3:
 6438 033c 5F5F7569 		.ascii	"__uint8_t\000"
 6438      6E74385F 
 6438      7400
 6439              	.LASF67:
 6440 0346 6D6F6462 		.ascii	"modbus_input_registers_value\000"
 6440      75735F69 
 6440      6E707574 
 6440      5F726567 
 6440      69737465 
 6441              	.LASF54:
ARM GAS  C:\Users\Shaunak\AppData\Local\Temp\ccVo5zvX.s 			page 129


 6442 0363 696E7075 		.ascii	"input_registers_start_address\000"
 6442      745F7265 
 6442      67697374 
 6442      6572735F 
 6442      73746172 
 6443              	.LASF78:
 6444 0381 6D6F6462 		.ascii	"modbus_response_force_single_coil\000"
 6444      75735F72 
 6444      6573706F 
 6444      6E73655F 
 6444      666F7263 
 6445              	.LASF32:
 6446 03a3 6D6F6475 		.ascii	"modulo_discrete_input_count_array\000"
 6446      6C6F5F64 
 6446      69736372 
 6446      6574655F 
 6446      696E7075 
 6447              	.LASF42:
 6448 03c5 666F7263 		.ascii	"force_single_coil_array_for_writing_one_pad\000"
 6448      655F7369 
 6448      6E676C65 
 6448      5F636F69 
 6448      6C5F6172 
 6449              	.LASF55:
 6450 03f1 71756572 		.ascii	"query_response_preset_single_register\000"
 6450      795F7265 
 6450      73706F6E 
 6450      73655F70 
 6450      72657365 
 6451              	.LASF63:
 6452 0417 6D6F6462 		.ascii	"modbus_response_data_length\000"
 6452      75735F72 
 6452      6573706F 
 6452      6E73655F 
 6452      64617461 
 6453              	.LASF1:
 6454 0433 756E7369 		.ascii	"unsigned char\000"
 6454      676E6564 
 6454      20636861 
 6454      7200
 6455              	.LASF14:
 6456 0441 75734461 		.ascii	"usDataLen\000"
 6456      74614C65 
 6456      6E00
 6457              	.LASF15:
 6458 044b 75636843 		.ascii	"uchCRCHi\000"
 6458      52434869 
 6458      00
 6459              	.LASF0:
 6460 0454 7369676E 		.ascii	"signed char\000"
 6460      65642063 
 6460      68617200 
 6461              	.LASF9:
 6462 0460 6C6F6E67 		.ascii	"long long unsigned int\000"
 6462      206C6F6E 
 6462      6720756E 
 6462      7369676E 
ARM GAS  C:\Users\Shaunak\AppData\Local\Temp\ccVo5zvX.s 			page 130


 6462      65642069 
 6463              	.LASF72:
 6464 0477 6D6F6462 		.ascii	"modbus_response_read_coil\000"
 6464      75735F72 
 6464      6573706F 
 6464      6E73655F 
 6464      72656164 
 6465              	.LASF10:
 6466 0491 756E7369 		.ascii	"unsigned int\000"
 6466      676E6564 
 6466      20696E74 
 6466      00
 6467              	.LASF71:
 6468 049e 6D6F6462 		.ascii	"modbus_coil_value\000"
 6468      75735F63 
 6468      6F696C5F 
 6468      76616C75 
 6468      6500
 6469              	.LASF12:
 6470 04b0 75696E74 		.ascii	"uint16_t\000"
 6470      31365F74 
 6470      00
 6471              	.LASF74:
 6472 04b9 6D6F6462 		.ascii	"modbus_response_read_holding_registers\000"
 6472      75735F72 
 6472      6573706F 
 6472      6E73655F 
 6472      72656164 
 6473              	.LASF28:
 6474 04e0 6D6F6475 		.ascii	"modulo_start_address\000"
 6474      6C6F5F73 
 6474      74617274 
 6474      5F616464 
 6474      72657373 
 6475              	.LASF75:
 6476 04f5 6D6F6462 		.ascii	"modbus_response_preset_single_register\000"
 6476      75735F72 
 6476      6573706F 
 6476      6E73655F 
 6476      70726573 
 6477              	.LASF86:
 6478 051c 6D6F6462 		.ascii	"modbus_rtu.c\000"
 6478      75735F72 
 6478      74752E63 
 6478      00
 6479              	.LASF5:
 6480 0529 73686F72 		.ascii	"short unsigned int\000"
 6480      7420756E 
 6480      7369676E 
 6480      65642069 
 6480      6E7400
 6481              	.LASF59:
 6482 053c 686F6C64 		.ascii	"holding_register_start_address\000"
 6482      696E675F 
 6482      72656769 
 6482      73746572 
 6482      5F737461 
ARM GAS  C:\Users\Shaunak\AppData\Local\Temp\ccVo5zvX.s 			page 131


 6483              	.LASF48:
 6484 055b 636F696C 		.ascii	"coil_bit_padding_with_zero\000"
 6484      5F626974 
 6484      5F706164 
 6484      64696E67 
 6484      5F776974 
 6485              	.LASF47:
 6486 0576 636F696C 		.ascii	"coil_bit_padding_with_one\000"
 6486      5F626974 
 6486      5F706164 
 6486      64696E67 
 6486      5F776974 
 6487              	.LASF31:
 6488 0590 71756572 		.ascii	"query_response_read_discrete_input\000"
 6488      795F7265 
 6488      73706F6E 
 6488      73655F72 
 6488      6561645F 
 6489              	.LASF46:
 6490 05b3 6D6F6475 		.ascii	"modulo_coil_start_address\000"
 6490      6C6F5F63 
 6490      6F696C5F 
 6490      73746172 
 6490      745F6164 
 6491              	.LASF50:
 6492 05cd 686F6C64 		.ascii	"holding_registers_count\000"
 6492      696E675F 
 6492      72656769 
 6492      73746572 
 6492      735F636F 
 6493              	.LASF7:
 6494 05e5 6C6F6E67 		.ascii	"long unsigned int\000"
 6494      20756E73 
 6494      69676E65 
 6494      6420696E 
 6494      7400
 6495              	.LASF83:
 6496 05f7 6D6F6462 		.ascii	"modbus_response_input_registers_temp\000"
 6496      75735F72 
 6496      6573706F 
 6496      6E73655F 
 6496      696E7075 
 6497              	.LASF34:
 6498 061c 64697363 		.ascii	"discrete_input_start_address\000"
 6498      72657465 
 6498      5F696E70 
 6498      75745F73 
 6498      74617274 
 6499              	.LASF26:
 6500 0639 636F696C 		.ascii	"coil_start_address\000"
 6500      5F737461 
 6500      72745F61 
 6500      64647265 
 6500      737300
 6501              	.LASF18:
 6502 064c 43524331 		.ascii	"CRC16\000"
 6502      3600
ARM GAS  C:\Users\Shaunak\AppData\Local\Temp\ccVo5zvX.s 			page 132


 6503              	.LASF30:
 6504 0652 71756572 		.ascii	"query_response_read_coil\000"
 6504      795F7265 
 6504      73706F6E 
 6504      73655F72 
 6504      6561645F 
 6505              	.LASF57:
 6506 066b 70726573 		.ascii	"preset_holding_register_value\000"
 6506      65745F68 
 6506      6F6C6469 
 6506      6E675F72 
 6506      65676973 
 6507              	.LASF52:
 6508 0689 71756572 		.ascii	"query_response_read_input_registers\000"
 6508      795F7265 
 6508      73706F6E 
 6508      73655F72 
 6508      6561645F 
 6509              	.LASF39:
 6510 06ad 6D6F6475 		.ascii	"modulo_coil_address\000"
 6510      6C6F5F63 
 6510      6F696C5F 
 6510      61646472 
 6510      65737300 
 6511              	.LASF27:
 6512 06c1 6D6F6475 		.ascii	"modulo_coil_count\000"
 6512      6C6F5F63 
 6512      6F696C5F 
 6512      636F756E 
 6512      7400
 6513              	.LASF53:
 6514 06d3 696E7075 		.ascii	"input_registers_count\000"
 6514      745F7265 
 6514      67697374 
 6514      6572735F 
 6514      636F756E 
 6515              	.LASF69:
 6516 06e9 6D6F6462 		.ascii	"modbus_input_registers_value_L\000"
 6516      75735F69 
 6516      6E707574 
 6516      5F726567 
 6516      69737465 
 6517              	.LASF87:
 6518 0708 453A5C74 		.ascii	"E:\\temp\\Modbus_RTU_vP5_0\\Modbus_RTU_vP5_0.cydsn\000"
 6518      656D705C 
 6518      4D6F6462 
 6518      75735F52 
 6518      54555F76 
 6519              	.LASF20:
 6520 0738 6E756D62 		.ascii	"number\000"
 6520      657200
 6521              	.LASF58:
 6522 073f 71756572 		.ascii	"query_response_preset_multiple_registers\000"
 6522      795F7265 
 6522      73706F6E 
 6522      73655F70 
 6522      72657365 
ARM GAS  C:\Users\Shaunak\AppData\Local\Temp\ccVo5zvX.s 			page 133


 6523              	.LASF85:
 6524 0768 474E5520 		.ascii	"GNU C11 5.4.1 20160609 (release) [ARM/embedded-5-br"
 6524      43313120 
 6524      352E342E 
 6524      31203230 
 6524      31363036 
 6525 079b 616E6368 		.ascii	"anch revision 237715] -mcpu=cortex-m3 -mthumb -g -O"
 6525      20726576 
 6525      6973696F 
 6525      6E203233 
 6525      37373135 
 6526 07ce 67202D66 		.ascii	"g -ffunction-sections -ffat-lto-objects\000"
 6526      66756E63 
 6526      74696F6E 
 6526      2D736563 
 6526      74696F6E 
 6527              	.LASF61:
 6528 07f6 61756368 		.ascii	"auchCRCHi\000"
 6528      43524348 
 6528      6900
 6529              	.LASF70:
 6530 0800 6D6F6462 		.ascii	"modbus_discrete_input_value\000"
 6530      75735F64 
 6530      69736372 
 6530      6574655F 
 6530      696E7075 
 6531              	.LASF16:
 6532 081c 75636843 		.ascii	"uchCRCLo\000"
 6532      52434C6F 
 6532      00
 6533              	.LASF80:
 6534 0825 6D6F6462 		.ascii	"modbus_response_coil_temp\000"
 6534      75735F72 
 6534      6573706F 
 6534      6E73655F 
 6534      636F696C 
 6535              	.LASF43:
 6536 083f 71756572 		.ascii	"query_response_force_multiple_coils\000"
 6536      795F7265 
 6536      73706F6E 
 6536      73655F66 
 6536      6F726365 
 6537              	.LASF88:
 6538 0863 64617461 		.ascii	"data_array\000"
 6538      5F617272 
 6538      617900
 6539              	.LASF49:
 6540 086e 71756572 		.ascii	"query_response_read_holding_registers\000"
 6540      795F7265 
 6540      73706F6E 
 6540      73655F72 
 6540      6561645F 
 6541              	.LASF17:
 6542 0894 75496E64 		.ascii	"uIndex\000"
 6542      657800
 6543              		.ident	"GCC: (GNU Tools for ARM Embedded Processors) 5.4.1 20160609 (release) [ARM/embedded-5-bran
